

Microchip MPLAB XC8 Assembler V2.36 build 20220127204148 
                                                                                               Sun Aug 20 12:07:36 2023

Microchip MPLAB XC8 C Compiler v2.36 (Free license) build 20220127204148 Og1 
     1                           	processor	12F675
     2                           	pagewidth 120
     3                           	opt	flic
     4                           	psect	cinit,global,class=CODE,merge=1,delta=2
     5                           	psect	bssBANK0,global,class=BANK0,space=1,delta=1,noexec
     6                           	psect	cstackCOMMON,global,class=COMMON,space=1,delta=1,noexec
     7                           	psect	cstackBANK0,global,class=BANK0,space=1,delta=1,noexec
     8                           	psect	maintext,global,class=CODE,split=1,delta=2
     9                           	psect	text1,local,class=CODE,merge=1,delta=2
    10                           	psect	text2,local,class=CODE,merge=1,delta=2
    11                           	psect	text3,local,class=CODE,merge=1,delta=2
    12                           	psect	text4,local,class=CODE,merge=1,delta=2
    13                           	psect	text5,local,class=CODE,merge=1,delta=2
    14                           	psect	text6,local,class=CODE,merge=1,delta=2
    15                           	psect	text7,local,class=CODE,merge=1,delta=2
    16                           	psect	text8,local,class=CODE,merge=1,delta=2
    17                           	psect	text9,local,class=CODE,merge=1,delta=2
    18                           	psect	text10,local,class=CODE,merge=1,delta=2
    19                           	psect	text11,local,class=CODE,merge=1,delta=2
    20                           	psect	text12,local,class=CODE,merge=1,delta=2
    21                           	psect	intentry,global,class=CODE,delta=2
    22                           	psect	config,global,abs,ovrld,class=CONFIG,space=4,delta=2,noexec
    23                           	dabs	1,0x5E,2
    24  0000                     
    25                           ; Version 2.20
    26                           ; Generated 29/04/2020 GMT
    27                           ; 
    28                           ; Copyright © 2020, Microchip Technology Inc. and its subsidiaries ("Microchip")
    29                           ; All rights reserved.
    30                           ; 
    31                           ; This software is developed by Microchip Technology Inc. and its subsidiaries ("Microch
      +                          ip").
    32                           ; 
    33                           ; Redistribution and use in source and binary forms, with or without modification, are
    34                           ; permitted provided that the following conditions are met:
    35                           ; 
    36                           ;     1. Redistributions of source code must retain the above copyright notice, this lis
      +                          t of
    37                           ;        conditions and the following disclaimer.
    38                           ; 
    39                           ;     2. Redistributions in binary form must reproduce the above copyright notice, this 
      +                          list
    40                           ;        of conditions and the following disclaimer in the documentation and/or other
    41                           ;        materials provided with the distribution.
    42                           ; 
    43                           ;     3. Microchip's name may not be used to endorse or promote products derived from th
      +                          is
    44                           ;        software without specific prior written permission.
    45                           ; 
    46                           ; THIS SOFTWARE IS PROVIDED BY MICROCHIP "AS IS" AND ANY EXPRESS OR IMPLIED WARRANTIES,
    47                           ; INCLUDING, BUT NOT LIMITED TO, THE IMPLIED WARRANTIES OF MERCHANTABILITY AND FITNESS F
      +                          OR
    48                           ; PURPOSE ARE DISCLAIMED.  IN NO EVENT SHALL MICROCHIP BE LIABLE FOR ANY DIRECT, INDIREC
      +                          T,
    49                           ; INCIDENTAL, SPECIAL, EXEMPLARY, OR CONSEQUENTIAL DAMAGES (INCLUDING BUT NOT LIMITED TO
    50                           ; PROCUREMENT OF SUBSTITUTE GOODS OR SERVICES; LOSS OF USE, DATA OR PROFITS; OR BUSINESS
    51                           ; INTERRUPTION) HOWSOEVER CAUSED AND ON ANY THEORY OF LIABILITY, WHETHER IN CONTRACT, ST
      +                          RICT
    52                           ; LIABILITY, OR TORT (INCLUDING NEGLIGENCE OR OTHERWISE) ARISING IN ANY WAY OUT OF THE U
      +                          SE OF
    53                           ; THIS SOFTWARE, EVEN IF ADVISED OF THE POSSIBILITY OF SUCH DAMAGE.
    54                           ; 
    55                           ; 
    56                           ; Code-generator required, PIC12F675 Definitions
    57                           ; 
    58                           ; SFR Addresses
    59  0000                     	;# 
    60  0001                     	;# 
    61  0002                     	;# 
    62  0003                     	;# 
    63  0004                     	;# 
    64  0005                     	;# 
    65  000A                     	;# 
    66  000B                     	;# 
    67  000C                     	;# 
    68  000E                     	;# 
    69  000E                     	;# 
    70  000F                     	;# 
    71  0010                     	;# 
    72  0019                     	;# 
    73  001E                     	;# 
    74  001F                     	;# 
    75  0081                     	;# 
    76  0085                     	;# 
    77  008C                     	;# 
    78  008E                     	;# 
    79  0090                     	;# 
    80  0095                     	;# 
    81  0096                     	;# 
    82  0096                     	;# 
    83  0099                     	;# 
    84  009A                     	;# 
    85  009A                     	;# 
    86  009B                     	;# 
    87  009C                     	;# 
    88  009D                     	;# 
    89  009E                     	;# 
    90  009F                     	;# 
    91  0000                     	;# 
    92  0001                     	;# 
    93  0002                     	;# 
    94  0003                     	;# 
    95  0004                     	;# 
    96  0005                     	;# 
    97  000A                     	;# 
    98  000B                     	;# 
    99  000C                     	;# 
   100  000E                     	;# 
   101  000E                     	;# 
   102  000F                     	;# 
   103  0010                     	;# 
   104  0019                     	;# 
   105  001E                     	;# 
   106  001F                     	;# 
   107  0081                     	;# 
   108  0085                     	;# 
   109  008C                     	;# 
   110  008E                     	;# 
   111  0090                     	;# 
   112  0095                     	;# 
   113  0096                     	;# 
   114  0096                     	;# 
   115  0099                     	;# 
   116  009A                     	;# 
   117  009A                     	;# 
   118  009B                     	;# 
   119  009C                     	;# 
   120  009D                     	;# 
   121  009E                     	;# 
   122  009F                     	;# 
   123  0000                     	;# 
   124  0001                     	;# 
   125  0002                     	;# 
   126  0003                     	;# 
   127  0004                     	;# 
   128  0005                     	;# 
   129  000A                     	;# 
   130  000B                     	;# 
   131  000C                     	;# 
   132  000E                     	;# 
   133  000E                     	;# 
   134  000F                     	;# 
   135  0010                     	;# 
   136  0019                     	;# 
   137  001E                     	;# 
   138  001F                     	;# 
   139  0081                     	;# 
   140  0085                     	;# 
   141  008C                     	;# 
   142  008E                     	;# 
   143  0090                     	;# 
   144  0095                     	;# 
   145  0096                     	;# 
   146  0096                     	;# 
   147  0099                     	;# 
   148  009A                     	;# 
   149  009A                     	;# 
   150  009B                     	;# 
   151  009C                     	;# 
   152  009D                     	;# 
   153  009E                     	;# 
   154  009F                     	;# 
   155  0000                     	;# 
   156  0001                     	;# 
   157  0002                     	;# 
   158  0003                     	;# 
   159  0004                     	;# 
   160  0005                     	;# 
   161  000A                     	;# 
   162  000B                     	;# 
   163  000C                     	;# 
   164  000E                     	;# 
   165  000E                     	;# 
   166  000F                     	;# 
   167  0010                     	;# 
   168  0019                     	;# 
   169  001E                     	;# 
   170  001F                     	;# 
   171  0081                     	;# 
   172  0085                     	;# 
   173  008C                     	;# 
   174  008E                     	;# 
   175  0090                     	;# 
   176  0095                     	;# 
   177  0096                     	;# 
   178  0096                     	;# 
   179  0099                     	;# 
   180  009A                     	;# 
   181  009A                     	;# 
   182  009B                     	;# 
   183  009C                     	;# 
   184  009D                     	;# 
   185  009E                     	;# 
   186  009F                     	;# 
   187  0000                     	;# 
   188  0001                     	;# 
   189  0002                     	;# 
   190  0003                     	;# 
   191  0004                     	;# 
   192  0005                     	;# 
   193  000A                     	;# 
   194  000B                     	;# 
   195  000C                     	;# 
   196  000E                     	;# 
   197  000E                     	;# 
   198  000F                     	;# 
   199  0010                     	;# 
   200  0019                     	;# 
   201  001E                     	;# 
   202  001F                     	;# 
   203  0081                     	;# 
   204  0085                     	;# 
   205  008C                     	;# 
   206  008E                     	;# 
   207  0090                     	;# 
   208  0095                     	;# 
   209  0096                     	;# 
   210  0096                     	;# 
   211  0099                     	;# 
   212  009A                     	;# 
   213  009A                     	;# 
   214  009B                     	;# 
   215  009C                     	;# 
   216  009D                     	;# 
   217  009E                     	;# 
   218  009F                     	;# 
   219  0000                     	;# 
   220  0001                     	;# 
   221  0002                     	;# 
   222  0003                     	;# 
   223  0004                     	;# 
   224  0005                     	;# 
   225  000A                     	;# 
   226  000B                     	;# 
   227  000C                     	;# 
   228  000E                     	;# 
   229  000E                     	;# 
   230  000F                     	;# 
   231  0010                     	;# 
   232  0019                     	;# 
   233  001E                     	;# 
   234  001F                     	;# 
   235  0081                     	;# 
   236  0085                     	;# 
   237  008C                     	;# 
   238  008E                     	;# 
   239  0090                     	;# 
   240  0095                     	;# 
   241  0096                     	;# 
   242  0096                     	;# 
   243  0099                     	;# 
   244  009A                     	;# 
   245  009A                     	;# 
   246  009B                     	;# 
   247  009C                     	;# 
   248  009D                     	;# 
   249  009E                     	;# 
   250  009F                     	;# 
   251  000B                     _INTCONbits	set	11
   252  0001                     _TMR0	set	1
   253  001E                     _ADRESH	set	30
   254  001F                     _ADCON0	set	31
   255  0005                     _GPIO	set	5
   256  0019                     _CMCON	set	25
   257  005D                     _T0IE	set	93
   258  005A                     _T0IF	set	90
   259  0066                     _ADIF	set	102
   260  00F9                     _GO	set	249
   261  00FA                     _CHS0	set	250
   262  00FB                     _CHS1	set	251
   263  00FF                     _ADFM	set	255
   264  005F                     _GIE	set	95
   265  00FE                     _VCFG	set	254
   266  00F8                     _ADON	set	248
   267  002C                     _GP4	set	44
   268  002D                     _GP5	set	45
   269  002A                     _GP2	set	42
   270  0081                     _OPTION_REG	set	129
   271  009E                     _ADRESL	set	158
   272  009F                     _ANSEL	set	159
   273  0085                     _TRISIO	set	133
   274  0099                     _VRCON	set	153
   275  0429                     _TRISIO1	set	1065
   276  0428                     _TRISIO0	set	1064
   277  042C                     _TRISIO4	set	1068
   278  042D                     _TRISIO5	set	1069
   279  042A                     _TRISIO2	set	1066
   280                           
   281                           	psect	cinit
   282  000C                     start_initialization:	
   283                           ; #config settings
   284                           
   285  000C                     __initialization:
   286                           
   287                           ; Clear objects allocated to BANK0
   288  000C  1283               	bcf	3,5	;RP0=0, select bank0
   289  000D  01A9               	clrf	__pbssBANK0& (0+127)
   290  000E  01AA               	clrf	(__pbssBANK0+1)& (0+127)
   291  000F  01AB               	clrf	(__pbssBANK0+2)& (0+127)
   292  0010  01AC               	clrf	(__pbssBANK0+3)& (0+127)
   293  0011  01AD               	clrf	(__pbssBANK0+4)& (0+127)
   294  0012  01AE               	clrf	(__pbssBANK0+5)& (0+127)
   295  0013                     end_of_initialization:	
   296                           ;End of C runtime variable initialization code
   297                           
   298  0013                     __end_of__initialization:
   299  0013  0183               	clrf	3
   300  0014  2A36               	ljmp	_main	;jump to C main() function
   301                           
   302                           	psect	bssBANK0
   303  0029                     __pbssBANK0:
   304  0029                     _pulsePerTakt:
   305  0029                     	ds	2
   306  002B                     _pwmValue:
   307  002B                     	ds	2
   308  002D                     _adcValue:
   309  002D                     	ds	2
   310                           
   311                           	psect	cstackCOMMON
   312  0000                     __pcstackCOMMON:
   313  0000                     ??_Pin7ThermoControl:
   314  0000                     ??_main:	
   315                           ; 1 bytes @ 0x0
   316                           
   317                           
   318                           	psect	cstackBANK0
   319  0020                     __pcstackBANK0:	
   320                           ; 1 bytes @ 0x0
   321                           
   322  0020                     ?_TwoShortOneLong:
   323  0020                     ?_TwoShortTwoLong:	
   324                           ; 1 bytes @ 0x0
   325                           
   326  0020                     ?_ThreeLongOneShort:	
   327                           ; 1 bytes @ 0x0
   328                           
   329  0020                     ?_ThreeShort:	
   330                           ; 1 bytes @ 0x0
   331                           
   332  0020                     ?_Init_uC:	
   333                           ; 1 bytes @ 0x0
   334                           
   335  0020                     ?_Pin6VoltageControl:	
   336                           ; 1 bytes @ 0x0
   337                           
   338  0020                     ?_Pin7ThermoControl:	
   339                           ; 1 bytes @ 0x0
   340                           
   341  0020                     ?_ISR:	
   342                           ; 1 bytes @ 0x0
   343                           
   344  0020                     ??_ISR:	
   345                           ; 1 bytes @ 0x0
   346                           
   347  0020                     ?_InitTimer0:	
   348                           ; 1 bytes @ 0x0
   349                           
   350  0020                     ?_main:	
   351                           ; 1 bytes @ 0x0
   352                           
   353  0020                     ?_LongSound:	
   354                           ; 1 bytes @ 0x0
   355                           
   356  0020                     ?_ShortSound:	
   357                           ; 1 bytes @ 0x0
   358                           
   359  0020                     ?_MeasureTemp:	
   360                           ; 1 bytes @ 0x0
   361                           
   362                           
   363                           ; 2 bytes @ 0x0
   364  0020                     	ds	2
   365  0022                     ??_MeasureTemp:
   366  0022                     ??_Init_uC:	
   367                           ; 1 bytes @ 0x2
   368                           
   369  0022                     ??_InitTimer0:	
   370                           ; 1 bytes @ 0x2
   371                           
   372  0022                     ??_LongSound:	
   373                           ; 1 bytes @ 0x2
   374                           
   375  0022                     ??_ShortSound:	
   376                           ; 1 bytes @ 0x2
   377                           
   378                           
   379                           ; 1 bytes @ 0x2
   380  0022                     	ds	2
   381  0024                     ??_TwoShortOneLong:
   382  0024                     ??_TwoShortTwoLong:	
   383                           ; 1 bytes @ 0x4
   384                           
   385  0024                     ??_ThreeLongOneShort:	
   386                           ; 1 bytes @ 0x4
   387                           
   388  0024                     ??_ThreeShort:	
   389                           ; 1 bytes @ 0x4
   390                           
   391                           
   392                           ; 1 bytes @ 0x4
   393  0024                     	ds	3
   394  0027                     ??_Pin6VoltageControl:
   395                           
   396                           ; 1 bytes @ 0x7
   397  0027                     	ds	2
   398                           
   399                           	psect	maintext
   400  0236                     __pmaintext:	
   401 ;;
   402 ;;Main: autosize = 0, tempsize = 0, incstack = 0, save=0
   403 ;;
   404 ;; *************** function _main *****************
   405 ;; Defined at:
   406 ;;		line 62 in file "main.c"
   407 ;; Parameters:    Size  Location     Type
   408 ;;		None
   409 ;; Auto vars:     Size  Location     Type
   410 ;;		None
   411 ;; Return value:  Size  Location     Type
   412 ;;                  1    wreg      void 
   413 ;; Registers used:
   414 ;;		wreg, status,2, status,0, btemp+1, pclath, cstack
   415 ;; Tracked objects:
   416 ;;		On entry : B00/0
   417 ;;		On exit  : 0/0
   418 ;;		Unchanged: 0/0
   419 ;; Data sizes:     COMMON   BANK0
   420 ;;      Params:         0       0
   421 ;;      Locals:         0       0
   422 ;;      Temps:          0       0
   423 ;;      Totals:         0       0
   424 ;;Total ram usage:        0 bytes
   425 ;; Hardware stack levels required when called: 4
   426 ;; This function calls:
   427 ;;		_InitTimer0
   428 ;;		_Init_uC
   429 ;;		_Pin6VoltageControl
   430 ;;		_Pin7ThermoControl
   431 ;; This function is called by:
   432 ;;		Startup code after reset
   433 ;; This function uses a non-reentrant model
   434 ;;
   435                           
   436  0236                     _main:	
   437                           ;psect for function _main
   438                           
   439  0236                     l1173:	
   440                           ;incstack = 0
   441                           ; Regs used in _main: [wreg+status,2+status,0+btemp+1+pclath+cstack]
   442                           
   443  0236  222E               	fcall	_InitTimer0
   444  0237  216B               	fcall	_Init_uC
   445  0238                     l1175:
   446  0238  178B               	bsf	11,7	;volatile
   447  0239                     l1177:
   448  0239  20D7               	fcall	_Pin6VoltageControl
   449  023A                     l1179:
   450  023A  2015               	fcall	_Pin7ThermoControl
   451  023B  2A39               	goto	l1177
   452  023C  280B               	ljmp	start
   453  023D                     __end_of_main:
   454                           
   455                           	psect	text1
   456  0015                     __ptext1:	
   457 ;; *************** function _Pin7ThermoControl *****************
   458 ;; Defined at:
   459 ;;		line 79 in file "ADC.c"
   460 ;; Parameters:    Size  Location     Type
   461 ;;		None
   462 ;; Auto vars:     Size  Location     Type
   463 ;;		None
   464 ;; Return value:  Size  Location     Type
   465 ;;                  1    wreg      void 
   466 ;; Registers used:
   467 ;;		wreg, status,2, status,0, btemp+1, pclath, cstack
   468 ;; Tracked objects:
   469 ;;		On entry : 0/0
   470 ;;		On exit  : 0/0
   471 ;;		Unchanged: 0/0
   472 ;; Data sizes:     COMMON   BANK0
   473 ;;      Params:         0       0
   474 ;;      Locals:         0       0
   475 ;;      Temps:          0       0
   476 ;;      Totals:         0       0
   477 ;;Total ram usage:        0 bytes
   478 ;; Hardware stack levels used: 1
   479 ;; Hardware stack levels required when called: 3
   480 ;; This function calls:
   481 ;;		_MeasureTemp
   482 ;;		_ThreeLongOneShort
   483 ;;		_ThreeShort
   484 ;; This function is called by:
   485 ;;		_main
   486 ;; This function uses a non-reentrant model
   487 ;;
   488                           
   489  0015                     _Pin7ThermoControl:	
   490                           ;psect for function _Pin7ThermoControl
   491                           
   492  0015                     l1125:	
   493                           ;incstack = 0
   494                           ; Regs used in _Pin7ThermoControl: [wreg+status,2+status,0+btemp+1+pclath+cstack]
   495                           
   496                           
   497                           ;ADC.c: 81:              MeasureTemp();
   498  0015  2196               	fcall	_MeasureTemp
   499  0016                     l1127:
   500                           
   501                           ;ADC.c: 83:              if (adcValue < 200){
   502  0016  1283               	bcf	3,5	;RP0=0, select bank0
   503  0017  082E               	movf	_adcValue+1,w
   504  0018  3A80               	xorlw	128
   505  0019  00DF               	movwf	btemp+1
   506  001A  3080               	movlw	128
   507  001B  025F               	subwf	btemp+1,w
   508  001C  1D03               	skipz
   509  001D  2820               	goto	u255
   510  001E  30C8               	movlw	200
   511  001F  022D               	subwf	_adcValue,w
   512  0020                     u255:
   513  0020  1803               	skipnc
   514  0021  2823               	goto	u251
   515  0022  2824               	goto	u250
   516  0023                     u251:
   517  0023  2839               	goto	l1139
   518  0024                     u250:
   519  0024                     l1129:
   520                           
   521                           ;ADC.c: 84:                  GP5 = 1;
   522  0024  1283               	bcf	3,5	;RP0=0, select bank0
   523  0025  1685               	bsf	5,5	;volatile
   524  0026                     l1131:
   525                           
   526                           ;ADC.c: 85:                        pwmValue = 0;
   527  0026  01AB               	clrf	_pwmValue
   528  0027  01AC               	clrf	_pwmValue+1
   529  0028                     l1133:
   530                           
   531                           ;ADC.c: 87:                       MeasureTemp();
   532  0028  2196               	fcall	_MeasureTemp
   533  0029                     l1135:
   534                           
   535                           ;ADC.c: 88:                       ThreeLongOneShort();
   536  0029  21E4               	fcall	_ThreeLongOneShort
   537  002A                     l1137:
   538                           
   539                           ;ADC.c: 89:                     } while(adcValue < 200);
   540  002A  1283               	bcf	3,5	;RP0=0, select bank0
   541  002B  082E               	movf	_adcValue+1,w
   542  002C  3A80               	xorlw	128
   543  002D  00DF               	movwf	btemp+1
   544  002E  3080               	movlw	128
   545  002F  025F               	subwf	btemp+1,w
   546  0030  1D03               	skipz
   547  0031  2834               	goto	u265
   548  0032  30C8               	movlw	200
   549  0033  022D               	subwf	_adcValue,w
   550  0034                     u265:
   551  0034  1C03               	skipc
   552  0035  2837               	goto	u261
   553  0036  2838               	goto	u260
   554  0037                     u261:
   555  0037  2828               	goto	l1133
   556  0038                     u260:
   557  0038  28D6               	goto	l95
   558  0039                     l1139:
   559  0039  1283               	bcf	3,5	;RP0=0, select bank0
   560  003A  082E               	movf	_adcValue+1,w
   561  003B  3A80               	xorlw	128
   562  003C  00DF               	movwf	btemp+1
   563  003D  3080               	movlw	128
   564  003E  025F               	subwf	btemp+1,w
   565  003F  1D03               	skipz
   566  0040  2843               	goto	u275
   567  0041  30C8               	movlw	200
   568  0042  022D               	subwf	_adcValue,w
   569  0043                     u275:
   570  0043  1C03               	skipc
   571  0044  2846               	goto	u271
   572  0045  2847               	goto	u270
   573  0046                     u271:
   574  0046  2859               	goto	l1145
   575  0047                     u270:
   576  0047                     l1141:
   577  0047  1283               	bcf	3,5	;RP0=0, select bank0
   578  0048  082E               	movf	_adcValue+1,w
   579  0049  3A80               	xorlw	128
   580  004A  00DF               	movwf	btemp+1
   581  004B  3083               	movlw	131
   582  004C  025F               	subwf	btemp+1,w
   583  004D  1D03               	skipz
   584  004E  2851               	goto	u285
   585  004F  3070               	movlw	112
   586  0050  022D               	subwf	_adcValue,w
   587  0051                     u285:
   588  0051  1803               	skipnc
   589  0052  2854               	goto	u281
   590  0053  2855               	goto	u280
   591  0054                     u281:
   592  0054  2859               	goto	l1145
   593  0055                     u280:
   594  0055                     l1143:
   595                           
   596                           ;ADC.c: 92:                         pwmValue = 0;
   597  0055  1283               	bcf	3,5	;RP0=0, select bank0
   598  0056  01AB               	clrf	_pwmValue
   599  0057  01AC               	clrf	_pwmValue+1
   600                           
   601                           ;ADC.c: 93:                        }
   602  0058  28D6               	goto	l95
   603  0059                     l1145:
   604  0059  1283               	bcf	3,5	;RP0=0, select bank0
   605  005A  082E               	movf	_adcValue+1,w
   606  005B  3A80               	xorlw	128
   607  005C  00DF               	movwf	btemp+1
   608  005D  3083               	movlw	131
   609  005E  025F               	subwf	btemp+1,w
   610  005F  1D03               	skipz
   611  0060  2863               	goto	u295
   612  0061  3070               	movlw	112
   613  0062  022D               	subwf	_adcValue,w
   614  0063                     u295:
   615  0063  1C03               	skipc
   616  0064  2866               	goto	u291
   617  0065  2867               	goto	u290
   618  0066                     u291:
   619  0066  287B               	goto	l1151
   620  0067                     u290:
   621  0067                     l1147:
   622  0067  1283               	bcf	3,5	;RP0=0, select bank0
   623  0068  082E               	movf	_adcValue+1,w
   624  0069  3A80               	xorlw	128
   625  006A  00DF               	movwf	btemp+1
   626  006B  3083               	movlw	131
   627  006C  025F               	subwf	btemp+1,w
   628  006D  1D03               	skipz
   629  006E  2871               	goto	u305
   630  006F  308E               	movlw	142
   631  0070  022D               	subwf	_adcValue,w
   632  0071                     u305:
   633  0071  1803               	skipnc
   634  0072  2874               	goto	u301
   635  0073  2875               	goto	u300
   636  0074                     u301:
   637  0074  287B               	goto	l1151
   638  0075                     u300:
   639  0075                     l1149:
   640                           
   641                           ;ADC.c: 95:                         pwmValue = 30;
   642  0075  301E               	movlw	30
   643  0076  1283               	bcf	3,5	;RP0=0, select bank0
   644  0077  00AB               	movwf	_pwmValue
   645  0078  3000               	movlw	0
   646  0079  00AC               	movwf	_pwmValue+1
   647                           
   648                           ;ADC.c: 96:                        }
   649  007A  28D6               	goto	l95
   650  007B                     l1151:
   651  007B  1283               	bcf	3,5	;RP0=0, select bank0
   652  007C  082E               	movf	_adcValue+1,w
   653  007D  3A80               	xorlw	128
   654  007E  00DF               	movwf	btemp+1
   655  007F  3083               	movlw	131
   656  0080  025F               	subwf	btemp+1,w
   657  0081  1D03               	skipz
   658  0082  2885               	goto	u315
   659  0083  308E               	movlw	142
   660  0084  022D               	subwf	_adcValue,w
   661  0085                     u315:
   662  0085  1C03               	skipc
   663  0086  2888               	goto	u311
   664  0087  2889               	goto	u310
   665  0088                     u311:
   666  0088  289D               	goto	l1157
   667  0089                     u310:
   668  0089                     l1153:
   669  0089  1283               	bcf	3,5	;RP0=0, select bank0
   670  008A  082E               	movf	_adcValue+1,w
   671  008B  3A80               	xorlw	128
   672  008C  00DF               	movwf	btemp+1
   673  008D  3083               	movlw	131
   674  008E  025F               	subwf	btemp+1,w
   675  008F  1D03               	skipz
   676  0090  2893               	goto	u325
   677  0091  30AC               	movlw	172
   678  0092  022D               	subwf	_adcValue,w
   679  0093                     u325:
   680  0093  1803               	skipnc
   681  0094  2896               	goto	u321
   682  0095  2897               	goto	u320
   683  0096                     u321:
   684  0096  289D               	goto	l1157
   685  0097                     u320:
   686  0097                     l1155:
   687                           
   688                           ;ADC.c: 98:                         pwmValue = 45;
   689  0097  302D               	movlw	45
   690  0098  1283               	bcf	3,5	;RP0=0, select bank0
   691  0099  00AB               	movwf	_pwmValue
   692  009A  3000               	movlw	0
   693  009B  00AC               	movwf	_pwmValue+1
   694                           
   695                           ;ADC.c: 99:                        }
   696  009C  28D6               	goto	l95
   697  009D                     l1157:
   698  009D  1283               	bcf	3,5	;RP0=0, select bank0
   699  009E  082E               	movf	_adcValue+1,w
   700  009F  3A80               	xorlw	128
   701  00A0  00DF               	movwf	btemp+1
   702  00A1  3083               	movlw	131
   703  00A2  025F               	subwf	btemp+1,w
   704  00A3  1D03               	skipz
   705  00A4  28A7               	goto	u335
   706  00A5  30AC               	movlw	172
   707  00A6  022D               	subwf	_adcValue,w
   708  00A7                     u335:
   709  00A7  1C03               	skipc
   710  00A8  28AA               	goto	u331
   711  00A9  28AB               	goto	u330
   712  00AA                     u331:
   713  00AA  28C0               	goto	l91
   714  00AB                     u330:
   715  00AB                     l1159:
   716  00AB  1283               	bcf	3,5	;RP0=0, select bank0
   717  00AC  082E               	movf	_adcValue+1,w
   718  00AD  3A80               	xorlw	128
   719  00AE  00DF               	movwf	btemp+1
   720  00AF  3083               	movlw	131
   721  00B0  025F               	subwf	btemp+1,w
   722  00B1  1D03               	skipz
   723  00B2  28B5               	goto	u345
   724  00B3  30CA               	movlw	202
   725  00B4  022D               	subwf	_adcValue,w
   726  00B5                     u345:
   727  00B5  1803               	skipnc
   728  00B6  28B8               	goto	u341
   729  00B7  28B9               	goto	u340
   730  00B8                     u341:
   731  00B8  28C0               	goto	l91
   732  00B9                     u340:
   733  00B9                     l1161:
   734                           
   735                           ;ADC.c: 101:                         pwmValue = 55;
   736  00B9  3037               	movlw	55
   737  00BA  1283               	bcf	3,5	;RP0=0, select bank0
   738  00BB  00AB               	movwf	_pwmValue
   739  00BC  3000               	movlw	0
   740  00BD  00AC               	movwf	_pwmValue+1
   741  00BE                     l1163:
   742                           
   743                           ;ADC.c: 102:                         ThreeShort();
   744  00BE  220A               	fcall	_ThreeShort
   745                           
   746                           ;ADC.c: 103:                        }
   747  00BF  28D6               	goto	l95
   748  00C0                     l91:	
   749                           ;ADC.c: 104:              else {
   750                           
   751                           
   752                           ;ADC.c: 105:                      GP5 = 1;
   753  00C0  1283               	bcf	3,5	;RP0=0, select bank0
   754  00C1  1685               	bsf	5,5	;volatile
   755  00C2                     l1165:
   756                           
   757                           ;ADC.c: 106:                         pwmValue = 85;
   758  00C2  3055               	movlw	85
   759  00C3  00AB               	movwf	_pwmValue
   760  00C4  3000               	movlw	0
   761  00C5  00AC               	movwf	_pwmValue+1
   762  00C6                     l1167:
   763                           
   764                           ;ADC.c: 108:                         MeasureTemp();
   765  00C6  2196               	fcall	_MeasureTemp
   766  00C7                     l1169:
   767                           
   768                           ;ADC.c: 109:                ThreeShort();
   769  00C7  220A               	fcall	_ThreeShort
   770  00C8                     l1171:
   771                           
   772                           ;ADC.c: 110:             } while (adcValue >= 970);
   773  00C8  1283               	bcf	3,5	;RP0=0, select bank0
   774  00C9  082E               	movf	_adcValue+1,w
   775  00CA  3A80               	xorlw	128
   776  00CB  00DF               	movwf	btemp+1
   777  00CC  3083               	movlw	131
   778  00CD  025F               	subwf	btemp+1,w
   779  00CE  1D03               	skipz
   780  00CF  28D2               	goto	u355
   781  00D0  30CA               	movlw	202
   782  00D1  022D               	subwf	_adcValue,w
   783  00D2                     u355:
   784  00D2  1803               	skipnc
   785  00D3  28D5               	goto	u351
   786  00D4  28D6               	goto	u350
   787  00D5                     u351:
   788  00D5  28C6               	goto	l1167
   789  00D6                     u350:
   790  00D6                     l95:
   791  00D6  0008               	return
   792  00D7                     __end_of_Pin7ThermoControl:
   793                           
   794                           	psect	text2
   795  020A                     __ptext2:	
   796 ;; *************** function _ThreeShort *****************
   797 ;; Defined at:
   798 ;;		line 41 in file "sounds.c"
   799 ;; Parameters:    Size  Location     Type
   800 ;;		None
   801 ;; Auto vars:     Size  Location     Type
   802 ;;		None
   803 ;; Return value:  Size  Location     Type
   804 ;;                  1    wreg      void 
   805 ;; Registers used:
   806 ;;		wreg, status,2, status,0, pclath, cstack
   807 ;; Tracked objects:
   808 ;;		On entry : 0/0
   809 ;;		On exit  : 0/0
   810 ;;		Unchanged: 0/0
   811 ;; Data sizes:     COMMON   BANK0
   812 ;;      Params:         0       0
   813 ;;      Locals:         0       0
   814 ;;      Temps:          0       3
   815 ;;      Totals:         0       3
   816 ;;Total ram usage:        3 bytes
   817 ;; Hardware stack levels used: 1
   818 ;; Hardware stack levels required when called: 2
   819 ;; This function calls:
   820 ;;		_ShortSound
   821 ;; This function is called by:
   822 ;;		_Pin7ThermoControl
   823 ;; This function uses a non-reentrant model
   824 ;;
   825                           
   826  020A                     _ThreeShort:	
   827                           ;psect for function _ThreeShort
   828                           
   829  020A                     l975:	
   830                           ;incstack = 0
   831                           ; Regs used in _ThreeShort: [wreg+status,2+status,0+pclath+cstack]
   832                           
   833                           
   834                           ;sounds.c: 42:    ShortSound();
   835  020A  21B8               	fcall	_ShortSound
   836                           
   837                           ;sounds.c: 43:    ShortSound();
   838  020B  21B8               	fcall	_ShortSound
   839                           
   840                           ;sounds.c: 44:    ShortSound();
   841  020C  21B8               	fcall	_ShortSound
   842  020D                     l977:
   843                           
   844                           ;sounds.c: 45:    _delay((unsigned long)((700)*(4000000/4000.0)));
   845  020D  3004               	movlw	4
   846  020E  1283               	bcf	3,5	;RP0=0, select bank0
   847  020F  00A6               	movwf	??_ThreeShort+2
   848  0210  308E               	movlw	142
   849  0211  00A5               	movwf	??_ThreeShort+1
   850  0212  3012               	movlw	18
   851  0213  00A4               	movwf	??_ThreeShort
   852  0214                     u367:
   853  0214  0BA4               	decfsz	??_ThreeShort,f
   854  0215  2A14               	goto	u367
   855  0216  0BA5               	decfsz	??_ThreeShort+1,f
   856  0217  2A14               	goto	u367
   857  0218  0BA6               	decfsz	??_ThreeShort+2,f
   858  0219  2A14               	goto	u367
   859  021A  0000               	nop
   860  021B                     l171:
   861  021B  0008               	return
   862  021C                     __end_of_ThreeShort:
   863                           
   864                           	psect	text3
   865  01E4                     __ptext3:	
   866 ;; *************** function _ThreeLongOneShort *****************
   867 ;; Defined at:
   868 ;;		line 55 in file "sounds.c"
   869 ;; Parameters:    Size  Location     Type
   870 ;;		None
   871 ;; Auto vars:     Size  Location     Type
   872 ;;		None
   873 ;; Return value:  Size  Location     Type
   874 ;;                  1    wreg      void 
   875 ;; Registers used:
   876 ;;		wreg, status,2, status,0, pclath, cstack
   877 ;; Tracked objects:
   878 ;;		On entry : 0/0
   879 ;;		On exit  : 0/0
   880 ;;		Unchanged: 0/0
   881 ;; Data sizes:     COMMON   BANK0
   882 ;;      Params:         0       0
   883 ;;      Locals:         0       0
   884 ;;      Temps:          0       3
   885 ;;      Totals:         0       3
   886 ;;Total ram usage:        3 bytes
   887 ;; Hardware stack levels used: 1
   888 ;; Hardware stack levels required when called: 2
   889 ;; This function calls:
   890 ;;		_LongSound
   891 ;;		_ShortSound
   892 ;; This function is called by:
   893 ;;		_Pin7ThermoControl
   894 ;; This function uses a non-reentrant model
   895 ;;
   896                           
   897  01E4                     _ThreeLongOneShort:	
   898                           ;psect for function _ThreeLongOneShort
   899                           
   900  01E4                     l971:	
   901                           ;incstack = 0
   902                           ; Regs used in _ThreeLongOneShort: [wreg+status,2+status,0+pclath+cstack]
   903                           
   904                           
   905                           ;sounds.c: 56:    LongSound();
   906  01E4  21CE               	fcall	_LongSound
   907                           
   908                           ;sounds.c: 57:    LongSound();
   909  01E5  21CE               	fcall	_LongSound
   910                           
   911                           ;sounds.c: 58:    LongSound();
   912  01E6  21CE               	fcall	_LongSound
   913                           
   914                           ;sounds.c: 59:    ShortSound();
   915  01E7  21B8               	fcall	_ShortSound
   916  01E8                     l973:
   917                           
   918                           ;sounds.c: 60:    _delay((unsigned long)((700)*(4000000/4000.0)));
   919  01E8  3004               	movlw	4
   920  01E9  1283               	bcf	3,5	;RP0=0, select bank0
   921  01EA  00A6               	movwf	??_ThreeLongOneShort+2
   922  01EB  308E               	movlw	142
   923  01EC  00A5               	movwf	??_ThreeLongOneShort+1
   924  01ED  3012               	movlw	18
   925  01EE  00A4               	movwf	??_ThreeLongOneShort
   926  01EF                     u377:
   927  01EF  0BA4               	decfsz	??_ThreeLongOneShort,f
   928  01F0  29EF               	goto	u377
   929  01F1  0BA5               	decfsz	??_ThreeLongOneShort+1,f
   930  01F2  29EF               	goto	u377
   931  01F3  0BA6               	decfsz	??_ThreeLongOneShort+2,f
   932  01F4  29EF               	goto	u377
   933  01F5  0000               	nop
   934  01F6                     l177:
   935  01F6  0008               	return
   936  01F7                     __end_of_ThreeLongOneShort:
   937                           
   938                           	psect	text4
   939  0196                     __ptext4:	
   940 ;; *************** function _MeasureTemp *****************
   941 ;; Defined at:
   942 ;;		line 114 in file "ADC.c"
   943 ;; Parameters:    Size  Location     Type
   944 ;;		None
   945 ;; Auto vars:     Size  Location     Type
   946 ;;		None
   947 ;; Return value:  Size  Location     Type
   948 ;;                  2   58[None  ] int 
   949 ;; Registers used:
   950 ;;		wreg, status,2
   951 ;; Tracked objects:
   952 ;;		On entry : 0/0
   953 ;;		On exit  : 0/0
   954 ;;		Unchanged: 0/0
   955 ;; Data sizes:     COMMON   BANK0
   956 ;;      Params:         0       0
   957 ;;      Locals:         0       0
   958 ;;      Temps:          0       2
   959 ;;      Totals:         0       2
   960 ;;Total ram usage:        2 bytes
   961 ;; Hardware stack levels used: 1
   962 ;; Hardware stack levels required when called: 1
   963 ;; This function calls:
   964 ;;		Nothing
   965 ;; This function is called by:
   966 ;;		_Pin7ThermoControl
   967 ;; This function uses a non-reentrant model
   968 ;;
   969                           
   970  0196                     _MeasureTemp:	
   971                           ;psect for function _MeasureTemp
   972                           
   973  0196                     l957:	
   974                           ;incstack = 0
   975                           ; Regs used in _MeasureTemp: [wreg+status,2]
   976                           
   977                           
   978                           ;ADC.c: 116:        ADCON0 = 0x00;
   979  0196  1283               	bcf	3,5	;RP0=0, select bank0
   980  0197  019F               	clrf	31	;volatile
   981  0198                     l959:
   982                           
   983                           ;ADC.c: 117:        ADFM = 1;
   984  0198  179F               	bsf	31,7	;volatile
   985  0199                     l961:
   986                           
   987                           ;ADC.c: 118:        ADON = 1;
   988  0199  141F               	bsf	31,0	;volatile
   989  019A                     l963:
   990                           
   991                           ;ADC.c: 120:        _delay((unsigned long)((5)*(4000000/4000.0)));
   992  019A  3007               	movlw	7
   993  019B  00A3               	movwf	??_MeasureTemp+1
   994  019C  307D               	movlw	125
   995  019D  00A2               	movwf	??_MeasureTemp
   996  019E                     u387:
   997  019E  0BA2               	decfsz	??_MeasureTemp,f
   998  019F  299E               	goto	u387
   999  01A0  0BA3               	decfsz	??_MeasureTemp+1,f
  1000  01A1  299E               	goto	u387
  1001  01A2                     l965:
  1002                           
  1003                           ;ADC.c: 121:        GO = 1;
  1004  01A2  1283               	bcf	3,5	;RP0=0, select bank0
  1005  01A3  149F               	bsf	31,1	;volatile
  1006  01A4                     l98:	
  1007                           ;ADC.c: 122:        while(!ADIF);
  1008                           
  1009  01A4  1F0C               	btfss	12,6	;volatile
  1010  01A5  29A7               	goto	u51
  1011  01A6  29A8               	goto	u50
  1012  01A7                     u51:
  1013  01A7  29A4               	goto	l98
  1014  01A8                     u50:
  1015  01A8                     l967:
  1016                           
  1017                           ;ADC.c: 123:        _delay((unsigned long)((5)*(4000000/4000.0)));
  1018  01A8  3007               	movlw	7
  1019  01A9  00A3               	movwf	??_MeasureTemp+1
  1020  01AA  307D               	movlw	125
  1021  01AB  00A2               	movwf	??_MeasureTemp
  1022  01AC                     u397:
  1023  01AC  0BA2               	decfsz	??_MeasureTemp,f
  1024  01AD  29AC               	goto	u397
  1025  01AE  0BA3               	decfsz	??_MeasureTemp+1,f
  1026  01AF  29AC               	goto	u397
  1027                           
  1028                           ;ADC.c: 125:        adcValue = (int) ((ADRESH << 8) + ADRESL);
  1029  01B0  1283               	bcf	3,5	;RP0=0, select bank0
  1030  01B1  081E               	movf	30,w	;volatile
  1031  01B2  00AE               	movwf	_adcValue+1
  1032  01B3  1683               	bsf	3,5	;RP0=1, select bank1
  1033  01B4  081E               	movf	30,w	;volatile
  1034  01B5  1283               	bcf	3,5	;RP0=0, select bank0
  1035  01B6  00AD               	movwf	_adcValue
  1036  01B7                     l101:
  1037  01B7  0008               	return
  1038  01B8                     __end_of_MeasureTemp:
  1039                           
  1040                           	psect	text5
  1041  00D7                     __ptext5:	
  1042 ;; *************** function _Pin6VoltageControl *****************
  1043 ;; Defined at:
  1044 ;;		line 49 in file "ADC.c"
  1045 ;; Parameters:    Size  Location     Type
  1046 ;;		None
  1047 ;; Auto vars:     Size  Location     Type
  1048 ;;		None
  1049 ;; Return value:  Size  Location     Type
  1050 ;;                  1    wreg      void 
  1051 ;; Registers used:
  1052 ;;		wreg, status,2, status,0, btemp+1, pclath, cstack
  1053 ;; Tracked objects:
  1054 ;;		On entry : 0/0
  1055 ;;		On exit  : 0/0
  1056 ;;		Unchanged: 0/0
  1057 ;; Data sizes:     COMMON   BANK0
  1058 ;;      Params:         0       0
  1059 ;;      Locals:         0       0
  1060 ;;      Temps:          0       2
  1061 ;;      Totals:         0       2
  1062 ;;Total ram usage:        2 bytes
  1063 ;; Hardware stack levels used: 1
  1064 ;; Hardware stack levels required when called: 3
  1065 ;; This function calls:
  1066 ;;		_TwoShortOneLong
  1067 ;;		_TwoShortTwoLong
  1068 ;; This function is called by:
  1069 ;;		_main
  1070 ;; This function uses a non-reentrant model
  1071 ;;
  1072                           
  1073  00D7                     _Pin6VoltageControl:	
  1074                           ;psect for function _Pin6VoltageControl
  1075                           
  1076  00D7                     l1011:	
  1077                           ;incstack = 0
  1078                           ; Regs used in _Pin6VoltageControl: [wreg+status,2+status,0+btemp+1+pclath+cstack]
  1079                           
  1080                           
  1081                           ;ADC.c: 51:     ADCON0 = 0x00;
  1082  00D7  1283               	bcf	3,5	;RP0=0, select bank0
  1083  00D8  019F               	clrf	31	;volatile
  1084  00D9                     l1013:
  1085                           
  1086                           ;ADC.c: 52:     ADFM = 1;
  1087  00D9  179F               	bsf	31,7	;volatile
  1088  00DA                     l1015:
  1089                           
  1090                           ;ADC.c: 53:     CHS1 = 0;
  1091  00DA  119F               	bcf	31,3	;volatile
  1092  00DB                     l1017:
  1093                           
  1094                           ;ADC.c: 54:     CHS0 = 1;
  1095  00DB  151F               	bsf	31,2	;volatile
  1096  00DC                     l1019:
  1097                           
  1098                           ;ADC.c: 55:     ADON = 1;
  1099  00DC  141F               	bsf	31,0	;volatile
  1100  00DD                     l1021:
  1101                           
  1102                           ;ADC.c: 57:      _delay((unsigned long)((10)*(4000000/4000.0)));
  1103  00DD  300D               	movlw	13
  1104  00DE  00A8               	movwf	??_Pin6VoltageControl+1
  1105  00DF  30FB               	movlw	251
  1106  00E0  00A7               	movwf	??_Pin6VoltageControl
  1107  00E1                     u407:
  1108  00E1  0BA7               	decfsz	??_Pin6VoltageControl,f
  1109  00E2  28E1               	goto	u407
  1110  00E3  0BA8               	decfsz	??_Pin6VoltageControl+1,f
  1111  00E4  28E1               	goto	u407
  1112  00E5  28E6               	nop2
  1113  00E6                     l1023:
  1114                           
  1115                           ;ADC.c: 59:        GO = 1;
  1116  00E6  1283               	bcf	3,5	;RP0=0, select bank0
  1117  00E7  149F               	bsf	31,1	;volatile
  1118  00E8                     l70:	
  1119                           ;ADC.c: 60:        while(!ADIF);
  1120                           
  1121  00E8  1F0C               	btfss	12,6	;volatile
  1122  00E9  28EB               	goto	u61
  1123  00EA  28EC               	goto	u60
  1124  00EB                     u61:
  1125  00EB  28E8               	goto	l70
  1126  00EC                     u60:
  1127  00EC                     l1025:
  1128                           
  1129                           ;ADC.c: 61:      _delay((unsigned long)((10)*(4000000/4000.0)));
  1130  00EC  300D               	movlw	13
  1131  00ED  00A8               	movwf	??_Pin6VoltageControl+1
  1132  00EE  30FB               	movlw	251
  1133  00EF  00A7               	movwf	??_Pin6VoltageControl
  1134  00F0                     u417:
  1135  00F0  0BA7               	decfsz	??_Pin6VoltageControl,f
  1136  00F1  28F0               	goto	u417
  1137  00F2  0BA8               	decfsz	??_Pin6VoltageControl+1,f
  1138  00F3  28F0               	goto	u417
  1139  00F4  28F5               	nop2
  1140                           
  1141                           ;ADC.c: 63:        adcValue = (int) ((ADRESH<<8)+ADRESL);
  1142  00F5  1283               	bcf	3,5	;RP0=0, select bank0
  1143  00F6  081E               	movf	30,w	;volatile
  1144  00F7  00AE               	movwf	_adcValue+1
  1145  00F8  1683               	bsf	3,5	;RP0=1, select bank1
  1146  00F9  081E               	movf	30,w	;volatile
  1147  00FA  1283               	bcf	3,5	;RP0=0, select bank0
  1148  00FB  00AD               	movwf	_adcValue
  1149  00FC                     l1027:
  1150                           
  1151                           ;ADC.c: 65:      if ((adcValue > 190) && (adcValue < 285)){
  1152  00FC  082E               	movf	_adcValue+1,w
  1153  00FD  3A80               	xorlw	128
  1154  00FE  00DF               	movwf	btemp+1
  1155  00FF  3080               	movlw	128
  1156  0100  025F               	subwf	btemp+1,w
  1157  0101  1D03               	skipz
  1158  0102  2905               	goto	u75
  1159  0103  30BF               	movlw	191
  1160  0104  022D               	subwf	_adcValue,w
  1161  0105                     u75:
  1162  0105  1C03               	skipc
  1163  0106  2908               	goto	u71
  1164  0107  2909               	goto	u70
  1165  0108                     u71:
  1166  0108  291B               	goto	l1033
  1167  0109                     u70:
  1168  0109                     l1029:
  1169  0109  1283               	bcf	3,5	;RP0=0, select bank0
  1170  010A  082E               	movf	_adcValue+1,w
  1171  010B  3A80               	xorlw	128
  1172  010C  00DF               	movwf	btemp+1
  1173  010D  3081               	movlw	129
  1174  010E  025F               	subwf	btemp+1,w
  1175  010F  1D03               	skipz
  1176  0110  2913               	goto	u85
  1177  0111  301D               	movlw	29
  1178  0112  022D               	subwf	_adcValue,w
  1179  0113                     u85:
  1180  0113  1803               	skipnc
  1181  0114  2916               	goto	u81
  1182  0115  2917               	goto	u80
  1183  0116                     u81:
  1184  0116  291B               	goto	l1033
  1185  0117                     u80:
  1186  0117                     l1031:
  1187                           
  1188                           ;ADC.c: 66:          GP5 = 0;
  1189  0117  1283               	bcf	3,5	;RP0=0, select bank0
  1190  0118  1285               	bcf	5,5	;volatile
  1191                           
  1192                           ;ADC.c: 67:          GP2 = 0;
  1193  0119  1105               	bcf	5,2	;volatile
  1194                           
  1195                           ;ADC.c: 68:         }
  1196  011A  293E               	goto	l78
  1197  011B                     l1033:
  1198  011B  1283               	bcf	3,5	;RP0=0, select bank0
  1199  011C  082E               	movf	_adcValue+1,w
  1200  011D  3A80               	xorlw	128
  1201  011E  00DF               	movwf	btemp+1
  1202  011F  3080               	movlw	128
  1203  0120  025F               	subwf	btemp+1,w
  1204  0121  1D03               	skipz
  1205  0122  2925               	goto	u95
  1206  0123  30BF               	movlw	191
  1207  0124  022D               	subwf	_adcValue,w
  1208  0125                     u95:
  1209  0125  1803               	skipnc
  1210  0126  2928               	goto	u91
  1211  0127  2929               	goto	u90
  1212  0128                     u91:
  1213  0128  292D               	goto	l1039
  1214  0129                     u90:
  1215  0129                     l1035:
  1216                           
  1217                           ;ADC.c: 70:          GP5 = 1;
  1218  0129  1283               	bcf	3,5	;RP0=0, select bank0
  1219  012A  1685               	bsf	5,5	;volatile
  1220  012B                     l1037:
  1221                           
  1222                           ;ADC.c: 71:          TwoShortOneLong();
  1223  012B  221C               	fcall	_TwoShortOneLong
  1224                           
  1225                           ;ADC.c: 72:         }
  1226  012C  293E               	goto	l78
  1227  012D                     l1039:
  1228  012D  1283               	bcf	3,5	;RP0=0, select bank0
  1229  012E  082E               	movf	_adcValue+1,w
  1230  012F  3A80               	xorlw	128
  1231  0130  00DF               	movwf	btemp+1
  1232  0131  3081               	movlw	129
  1233  0132  025F               	subwf	btemp+1,w
  1234  0133  1D03               	skipz
  1235  0134  2937               	goto	u105
  1236  0135  301D               	movlw	29
  1237  0136  022D               	subwf	_adcValue,w
  1238  0137                     u105:
  1239  0137  1C03               	skipc
  1240  0138  293A               	goto	u101
  1241  0139  293B               	goto	u100
  1242  013A                     u101:
  1243  013A  293E               	goto	l78
  1244  013B                     u100:
  1245  013B                     l1041:
  1246                           
  1247                           ;ADC.c: 74:          GP5 = 1;
  1248  013B  1283               	bcf	3,5	;RP0=0, select bank0
  1249  013C  1685               	bsf	5,5	;volatile
  1250  013D                     l1043:
  1251                           
  1252                           ;ADC.c: 75:          TwoShortTwoLong();
  1253  013D  21F7               	fcall	_TwoShortTwoLong
  1254  013E                     l78:
  1255  013E  0008               	return
  1256  013F                     __end_of_Pin6VoltageControl:
  1257                           
  1258                           	psect	text6
  1259  01F7                     __ptext6:	
  1260 ;; *************** function _TwoShortTwoLong *****************
  1261 ;; Defined at:
  1262 ;;		line 27 in file "sounds.c"
  1263 ;; Parameters:    Size  Location     Type
  1264 ;;		None
  1265 ;; Auto vars:     Size  Location     Type
  1266 ;;		None
  1267 ;; Return value:  Size  Location     Type
  1268 ;;                  1    wreg      void 
  1269 ;; Registers used:
  1270 ;;		wreg, status,2, status,0, pclath, cstack
  1271 ;; Tracked objects:
  1272 ;;		On entry : 0/0
  1273 ;;		On exit  : 0/0
  1274 ;;		Unchanged: 0/0
  1275 ;; Data sizes:     COMMON   BANK0
  1276 ;;      Params:         0       0
  1277 ;;      Locals:         0       0
  1278 ;;      Temps:          0       3
  1279 ;;      Totals:         0       3
  1280 ;;Total ram usage:        3 bytes
  1281 ;; Hardware stack levels used: 1
  1282 ;; Hardware stack levels required when called: 2
  1283 ;; This function calls:
  1284 ;;		_LongSound
  1285 ;;		_ShortSound
  1286 ;; This function is called by:
  1287 ;;		_Pin6VoltageControl
  1288 ;; This function uses a non-reentrant model
  1289 ;;
  1290                           
  1291  01F7                     _TwoShortTwoLong:	
  1292                           ;psect for function _TwoShortTwoLong
  1293                           
  1294  01F7                     l953:	
  1295                           ;incstack = 0
  1296                           ; Regs used in _TwoShortTwoLong: [wreg+status,2+status,0+pclath+cstack]
  1297                           
  1298                           
  1299                           ;sounds.c: 28:    ShortSound();
  1300  01F7  21B8               	fcall	_ShortSound
  1301                           
  1302                           ;sounds.c: 29:    ShortSound();
  1303  01F8  21B8               	fcall	_ShortSound
  1304                           
  1305                           ;sounds.c: 30:    LongSound();
  1306  01F9  21CE               	fcall	_LongSound
  1307                           
  1308                           ;sounds.c: 31:    LongSound();
  1309  01FA  21CE               	fcall	_LongSound
  1310  01FB                     l955:
  1311                           
  1312                           ;sounds.c: 32:    _delay((unsigned long)((700)*(4000000/4000.0)));
  1313  01FB  3004               	movlw	4
  1314  01FC  1283               	bcf	3,5	;RP0=0, select bank0
  1315  01FD  00A6               	movwf	??_TwoShortTwoLong+2
  1316  01FE  308E               	movlw	142
  1317  01FF  00A5               	movwf	??_TwoShortTwoLong+1
  1318  0200  3012               	movlw	18
  1319  0201  00A4               	movwf	??_TwoShortTwoLong
  1320  0202                     u427:
  1321  0202  0BA4               	decfsz	??_TwoShortTwoLong,f
  1322  0203  2A02               	goto	u427
  1323  0204  0BA5               	decfsz	??_TwoShortTwoLong+1,f
  1324  0205  2A02               	goto	u427
  1325  0206  0BA6               	decfsz	??_TwoShortTwoLong+2,f
  1326  0207  2A02               	goto	u427
  1327  0208  0000               	nop
  1328  0209                     l165:
  1329  0209  0008               	return
  1330  020A                     __end_of_TwoShortTwoLong:
  1331                           
  1332                           	psect	text7
  1333  021C                     __ptext7:	
  1334 ;; *************** function _TwoShortOneLong *****************
  1335 ;; Defined at:
  1336 ;;		line 20 in file "sounds.c"
  1337 ;; Parameters:    Size  Location     Type
  1338 ;;		None
  1339 ;; Auto vars:     Size  Location     Type
  1340 ;;		None
  1341 ;; Return value:  Size  Location     Type
  1342 ;;                  1    wreg      void 
  1343 ;; Registers used:
  1344 ;;		wreg, status,2, status,0, pclath, cstack
  1345 ;; Tracked objects:
  1346 ;;		On entry : 0/0
  1347 ;;		On exit  : 0/0
  1348 ;;		Unchanged: 0/0
  1349 ;; Data sizes:     COMMON   BANK0
  1350 ;;      Params:         0       0
  1351 ;;      Locals:         0       0
  1352 ;;      Temps:          0       3
  1353 ;;      Totals:         0       3
  1354 ;;Total ram usage:        3 bytes
  1355 ;; Hardware stack levels used: 1
  1356 ;; Hardware stack levels required when called: 2
  1357 ;; This function calls:
  1358 ;;		_LongSound
  1359 ;;		_ShortSound
  1360 ;; This function is called by:
  1361 ;;		_Pin6VoltageControl
  1362 ;; This function uses a non-reentrant model
  1363 ;;
  1364                           
  1365  021C                     _TwoShortOneLong:	
  1366                           ;psect for function _TwoShortOneLong
  1367                           
  1368  021C                     l949:	
  1369                           ;incstack = 0
  1370                           ; Regs used in _TwoShortOneLong: [wreg+status,2+status,0+pclath+cstack]
  1371                           
  1372                           
  1373                           ;sounds.c: 21:    ShortSound();
  1374  021C  21B8               	fcall	_ShortSound
  1375                           
  1376                           ;sounds.c: 22:    ShortSound();
  1377  021D  21B8               	fcall	_ShortSound
  1378                           
  1379                           ;sounds.c: 23:    LongSound();
  1380  021E  21CE               	fcall	_LongSound
  1381  021F                     l951:
  1382                           
  1383                           ;sounds.c: 24:    _delay((unsigned long)((700)*(4000000/4000.0)));
  1384  021F  3004               	movlw	4
  1385  0220  1283               	bcf	3,5	;RP0=0, select bank0
  1386  0221  00A6               	movwf	??_TwoShortOneLong+2
  1387  0222  308E               	movlw	142
  1388  0223  00A5               	movwf	??_TwoShortOneLong+1
  1389  0224  3012               	movlw	18
  1390  0225  00A4               	movwf	??_TwoShortOneLong
  1391  0226                     u437:
  1392  0226  0BA4               	decfsz	??_TwoShortOneLong,f
  1393  0227  2A26               	goto	u437
  1394  0228  0BA5               	decfsz	??_TwoShortOneLong+1,f
  1395  0229  2A26               	goto	u437
  1396  022A  0BA6               	decfsz	??_TwoShortOneLong+2,f
  1397  022B  2A26               	goto	u437
  1398  022C  0000               	nop
  1399  022D                     l162:
  1400  022D  0008               	return
  1401  022E                     __end_of_TwoShortOneLong:
  1402                           
  1403                           	psect	text8
  1404  01B8                     __ptext8:	
  1405 ;; *************** function _ShortSound *****************
  1406 ;; Defined at:
  1407 ;;		line 13 in file "sounds.c"
  1408 ;; Parameters:    Size  Location     Type
  1409 ;;		None
  1410 ;; Auto vars:     Size  Location     Type
  1411 ;;		None
  1412 ;; Return value:  Size  Location     Type
  1413 ;;                  1    wreg      void 
  1414 ;; Registers used:
  1415 ;;		wreg
  1416 ;; Tracked objects:
  1417 ;;		On entry : 0/0
  1418 ;;		On exit  : 0/0
  1419 ;;		Unchanged: 0/0
  1420 ;; Data sizes:     COMMON   BANK0
  1421 ;;      Params:         0       0
  1422 ;;      Locals:         0       0
  1423 ;;      Temps:          0       2
  1424 ;;      Totals:         0       2
  1425 ;;Total ram usage:        2 bytes
  1426 ;; Hardware stack levels used: 1
  1427 ;; Hardware stack levels required when called: 1
  1428 ;; This function calls:
  1429 ;;		Nothing
  1430 ;; This function is called by:
  1431 ;;		_TwoShortOneLong
  1432 ;;		_TwoShortTwoLong
  1433 ;;		_ThreeShort
  1434 ;;		_ThreeLongOneShort
  1435 ;;		_TwoShort
  1436 ;; This function uses a non-reentrant model
  1437 ;;
  1438                           
  1439  01B8                     _ShortSound:	
  1440                           ;psect for function _ShortSound
  1441                           
  1442  01B8                     l943:	
  1443                           ;incstack = 0
  1444                           ; Regs used in _ShortSound: [wreg]
  1445                           
  1446                           
  1447                           ;sounds.c: 14:    GP2 = 1;
  1448  01B8  1283               	bcf	3,5	;RP0=0, select bank0
  1449  01B9  1505               	bsf	5,2	;volatile
  1450  01BA                     l945:
  1451                           
  1452                           ;sounds.c: 15:     _delay((unsigned long)((60)*(4000000/4000.0)));
  1453  01BA  304E               	movlw	78
  1454  01BB  00A3               	movwf	??_ShortSound+1
  1455  01BC  30EB               	movlw	235
  1456  01BD  00A2               	movwf	??_ShortSound
  1457  01BE                     u447:
  1458  01BE  0BA2               	decfsz	??_ShortSound,f
  1459  01BF  29BE               	goto	u447
  1460  01C0  0BA3               	decfsz	??_ShortSound+1,f
  1461  01C1  29BE               	goto	u447
  1462  01C2                     l947:
  1463                           
  1464                           ;sounds.c: 16:    GP2 = 0;
  1465  01C2  1283               	bcf	3,5	;RP0=0, select bank0
  1466  01C3  1105               	bcf	5,2	;volatile
  1467                           
  1468                           ;sounds.c: 17:     _delay((unsigned long)((80)*(4000000/4000.0)));
  1469  01C4  3068               	movlw	104
  1470  01C5  00A3               	movwf	??_ShortSound+1
  1471  01C6  30E4               	movlw	228
  1472  01C7  00A2               	movwf	??_ShortSound
  1473  01C8                     u457:
  1474  01C8  0BA2               	decfsz	??_ShortSound,f
  1475  01C9  29C8               	goto	u457
  1476  01CA  0BA3               	decfsz	??_ShortSound+1,f
  1477  01CB  29C8               	goto	u457
  1478  01CC  0000               	nop
  1479  01CD                     l159:
  1480  01CD  0008               	return
  1481  01CE                     __end_of_ShortSound:
  1482                           
  1483                           	psect	text9
  1484  01CE                     __ptext9:	
  1485 ;; *************** function _LongSound *****************
  1486 ;; Defined at:
  1487 ;;		line 6 in file "sounds.c"
  1488 ;; Parameters:    Size  Location     Type
  1489 ;;		None
  1490 ;; Auto vars:     Size  Location     Type
  1491 ;;		None
  1492 ;; Return value:  Size  Location     Type
  1493 ;;                  1    wreg      void 
  1494 ;; Registers used:
  1495 ;;		wreg
  1496 ;; Tracked objects:
  1497 ;;		On entry : 0/0
  1498 ;;		On exit  : 0/0
  1499 ;;		Unchanged: 0/0
  1500 ;; Data sizes:     COMMON   BANK0
  1501 ;;      Params:         0       0
  1502 ;;      Locals:         0       0
  1503 ;;      Temps:          0       2
  1504 ;;      Totals:         0       2
  1505 ;;Total ram usage:        2 bytes
  1506 ;; Hardware stack levels used: 1
  1507 ;; Hardware stack levels required when called: 1
  1508 ;; This function calls:
  1509 ;;		Nothing
  1510 ;; This function is called by:
  1511 ;;		_TwoShortOneLong
  1512 ;;		_TwoShortTwoLong
  1513 ;;		_ThreeLongOneShort
  1514 ;;		_ThreeLong
  1515 ;; This function uses a non-reentrant model
  1516 ;;
  1517                           
  1518  01CE                     _LongSound:	
  1519                           ;psect for function _LongSound
  1520                           
  1521  01CE                     l937:	
  1522                           ;incstack = 0
  1523                           ; Regs used in _LongSound: [wreg]
  1524                           
  1525                           
  1526                           ;sounds.c: 7:    GP2 = 1;
  1527  01CE  1283               	bcf	3,5	;RP0=0, select bank0
  1528  01CF  1505               	bsf	5,2	;volatile
  1529  01D0                     l939:
  1530                           
  1531                           ;sounds.c: 8:     _delay((unsigned long)((150)*(4000000/4000.0)));
  1532  01D0  30C3               	movlw	195
  1533  01D1  00A3               	movwf	??_LongSound+1
  1534  01D2  30CD               	movlw	205
  1535  01D3  00A2               	movwf	??_LongSound
  1536  01D4                     u467:
  1537  01D4  0BA2               	decfsz	??_LongSound,f
  1538  01D5  29D4               	goto	u467
  1539  01D6  0BA3               	decfsz	??_LongSound+1,f
  1540  01D7  29D4               	goto	u467
  1541  01D8                     l941:
  1542                           
  1543                           ;sounds.c: 9:    GP2 = 0;
  1544  01D8  1283               	bcf	3,5	;RP0=0, select bank0
  1545  01D9  1105               	bcf	5,2	;volatile
  1546                           
  1547                           ;sounds.c: 10:     _delay((unsigned long)((80)*(4000000/4000.0)));
  1548  01DA  3068               	movlw	104
  1549  01DB  00A3               	movwf	??_LongSound+1
  1550  01DC  30E4               	movlw	228
  1551  01DD  00A2               	movwf	??_LongSound
  1552  01DE                     u477:
  1553  01DE  0BA2               	decfsz	??_LongSound,f
  1554  01DF  29DE               	goto	u477
  1555  01E0  0BA3               	decfsz	??_LongSound+1,f
  1556  01E1  29DE               	goto	u477
  1557  01E2  0000               	nop
  1558  01E3                     l156:
  1559  01E3  0008               	return
  1560  01E4                     __end_of_LongSound:
  1561                           
  1562                           	psect	text10
  1563  016B                     __ptext10:	
  1564 ;; *************** function _Init_uC *****************
  1565 ;; Defined at:
  1566 ;;		line 11 in file "ADC.c"
  1567 ;; Parameters:    Size  Location     Type
  1568 ;;		None
  1569 ;; Auto vars:     Size  Location     Type
  1570 ;;		None
  1571 ;; Return value:  Size  Location     Type
  1572 ;;                  1    wreg      void 
  1573 ;; Registers used:
  1574 ;;		wreg, status,2
  1575 ;; Tracked objects:
  1576 ;;		On entry : 0/0
  1577 ;;		On exit  : 0/0
  1578 ;;		Unchanged: 0/0
  1579 ;; Data sizes:     COMMON   BANK0
  1580 ;;      Params:         0       0
  1581 ;;      Locals:         0       0
  1582 ;;      Temps:          0       3
  1583 ;;      Totals:         0       3
  1584 ;;Total ram usage:        3 bytes
  1585 ;; Hardware stack levels used: 1
  1586 ;; Hardware stack levels required when called: 1
  1587 ;; This function calls:
  1588 ;;		Nothing
  1589 ;; This function is called by:
  1590 ;;		_main
  1591 ;; This function uses a non-reentrant model
  1592 ;;
  1593                           
  1594  016B                     _Init_uC:	
  1595                           ;psect for function _Init_uC
  1596                           
  1597  016B                     l979:	
  1598                           ;incstack = 0
  1599                           ; Regs used in _Init_uC: [wreg+status,2]
  1600                           
  1601                           
  1602                           ;ADC.c: 13:     _delay((unsigned long)((2500)*(4000000/4000.0)));
  1603  016B  300D               	movlw	13
  1604  016C  1283               	bcf	3,5	;RP0=0, select bank0
  1605  016D  00A4               	movwf	??_Init_uC+2
  1606  016E  30AF               	movlw	175
  1607  016F  00A3               	movwf	??_Init_uC+1
  1608  0170  30B6               	movlw	182
  1609  0171  00A2               	movwf	??_Init_uC
  1610  0172                     u487:
  1611  0172  0BA2               	decfsz	??_Init_uC,f
  1612  0173  2972               	goto	u487
  1613  0174  0BA3               	decfsz	??_Init_uC+1,f
  1614  0175  2972               	goto	u487
  1615  0176  0BA4               	decfsz	??_Init_uC+2,f
  1616  0177  2972               	goto	u487
  1617  0178  0000               	nop
  1618                           
  1619                           ;ADC.c: 15:  CMCON = 0x07;
  1620  0179  3007               	movlw	7
  1621  017A  1283               	bcf	3,5	;RP0=0, select bank0
  1622  017B  0099               	movwf	25	;volatile
  1623  017C                     l981:
  1624                           
  1625                           ;ADC.c: 16:     VRCON = 0x00;
  1626  017C  1683               	bsf	3,5	;RP0=1, select bank1
  1627  017D  0199               	clrf	25	;volatile
  1628  017E                     l983:
  1629                           
  1630                           ;ADC.c: 19:     TRISIO = 0;
  1631  017E  0185               	clrf	5	;volatile
  1632  017F                     l985:
  1633                           
  1634                           ;ADC.c: 20:     GPIO = 0;
  1635  017F  1283               	bcf	3,5	;RP0=0, select bank0
  1636  0180  0185               	clrf	5	;volatile
  1637  0181                     l987:
  1638                           
  1639                           ;ADC.c: 23:     TRISIO2 = 0;
  1640  0181  1683               	bsf	3,5	;RP0=1, select bank1
  1641  0182  1105               	bcf	5,2	;volatile
  1642  0183                     l989:
  1643                           
  1644                           ;ADC.c: 24:     GP2 = 0;
  1645  0183  1283               	bcf	3,5	;RP0=0, select bank0
  1646  0184  1105               	bcf	5,2	;volatile
  1647  0185                     l991:
  1648                           
  1649                           ;ADC.c: 27:     TRISIO5 = 0;
  1650  0185  1683               	bsf	3,5	;RP0=1, select bank1
  1651  0186  1285               	bcf	5,5	;volatile
  1652  0187                     l993:
  1653                           
  1654                           ;ADC.c: 28:     GP5 = 1;
  1655  0187  1283               	bcf	3,5	;RP0=0, select bank0
  1656  0188  1685               	bsf	5,5	;volatile
  1657  0189                     l995:
  1658                           
  1659                           ;ADC.c: 31:     TRISIO4 = 0;
  1660  0189  1683               	bsf	3,5	;RP0=1, select bank1
  1661  018A  1205               	bcf	5,4	;volatile
  1662  018B                     l997:
  1663                           
  1664                           ;ADC.c: 32:     GP4 = 0;
  1665  018B  1283               	bcf	3,5	;RP0=0, select bank0
  1666  018C  1205               	bcf	5,4	;volatile
  1667  018D                     l999:
  1668                           
  1669                           ;ADC.c: 36:     ADON = 1;
  1670  018D  141F               	bsf	31,0	;volatile
  1671  018E                     l1001:
  1672                           
  1673                           ;ADC.c: 38:     VCFG = 1;
  1674  018E  171F               	bsf	31,6	;volatile
  1675  018F                     l1003:
  1676                           
  1677                           ;ADC.c: 39:     TRISIO0 = 1;
  1678  018F  1683               	bsf	3,5	;RP0=1, select bank1
  1679  0190  1405               	bsf	5,0	;volatile
  1680  0191                     l1005:
  1681                           
  1682                           ;ADC.c: 40:     TRISIO1 = 1;
  1683  0191  1485               	bsf	5,1	;volatile
  1684  0192                     l1007:
  1685                           
  1686                           ;ADC.c: 42:     ANSEL = 0b00110011;
  1687  0192  3033               	movlw	51
  1688  0193  009F               	movwf	31	;volatile
  1689  0194                     l1009:
  1690                           
  1691                           ;ADC.c: 44:     GIE = 1;
  1692  0194  178B               	bsf	11,7	;volatile
  1693  0195                     l67:
  1694  0195  0008               	return
  1695  0196                     __end_of_Init_uC:
  1696                           
  1697                           	psect	text11
  1698  022E                     __ptext11:	
  1699 ;; *************** function _InitTimer0 *****************
  1700 ;; Defined at:
  1701 ;;		line 4 in file "timer0.c"
  1702 ;; Parameters:    Size  Location     Type
  1703 ;;		None
  1704 ;; Auto vars:     Size  Location     Type
  1705 ;;		None
  1706 ;; Return value:  Size  Location     Type
  1707 ;;                  1    wreg      void 
  1708 ;; Registers used:
  1709 ;;		wreg, status,2, status,0
  1710 ;; Tracked objects:
  1711 ;;		On entry : 0/0
  1712 ;;		On exit  : 0/0
  1713 ;;		Unchanged: 0/0
  1714 ;; Data sizes:     COMMON   BANK0
  1715 ;;      Params:         0       0
  1716 ;;      Locals:         0       0
  1717 ;;      Temps:          0       1
  1718 ;;      Totals:         0       1
  1719 ;;Total ram usage:        1 bytes
  1720 ;; Hardware stack levels used: 1
  1721 ;; Hardware stack levels required when called: 1
  1722 ;; This function calls:
  1723 ;;		Nothing
  1724 ;; This function is called by:
  1725 ;;		_main
  1726 ;; This function uses a non-reentrant model
  1727 ;;
  1728                           
  1729  022E                     _InitTimer0:	
  1730                           ;psect for function _InitTimer0
  1731                           
  1732  022E                     l1093:	
  1733                           ;incstack = 0
  1734                           ; Regs used in _InitTimer0: [wreg+status,2+status,0]
  1735                           
  1736                           
  1737                           ;timer0.c: 7:  OPTION_REG &= 0xC0;
  1738  022E  30C0               	movlw	192
  1739  022F  1283               	bcf	3,5	;RP0=0, select bank0
  1740  0230  00A2               	movwf	??_InitTimer0
  1741  0231  0822               	movf	??_InitTimer0,w
  1742  0232  1683               	bsf	3,5	;RP0=1, select bank1
  1743  0233  0581               	andwf	1,f	;volatile
  1744  0234                     l1095:
  1745                           
  1746                           ;timer0.c: 8:  T0IE = 1;
  1747  0234  168B               	bsf	11,5	;volatile
  1748  0235                     l127:
  1749  0235  0008               	return
  1750  0236                     __end_of_InitTimer0:
  1751                           
  1752                           	psect	text12
  1753  013F                     __ptext12:	
  1754 ;; *************** function _ISR *****************
  1755 ;; Defined at:
  1756 ;;		line 7 in file "interrupt.c"
  1757 ;; Parameters:    Size  Location     Type
  1758 ;;		None
  1759 ;; Auto vars:     Size  Location     Type
  1760 ;;		None
  1761 ;; Return value:  Size  Location     Type
  1762 ;;                  1    wreg      void 
  1763 ;; Registers used:
  1764 ;;		wreg, status,2
  1765 ;; Tracked objects:
  1766 ;;		On entry : 0/0
  1767 ;;		On exit  : 0/0
  1768 ;;		Unchanged: 0/0
  1769 ;; Data sizes:     COMMON   BANK0
  1770 ;;      Params:         0       0
  1771 ;;      Locals:         0       0
  1772 ;;      Temps:          0       2
  1773 ;;      Totals:         0       2
  1774 ;;Total ram usage:        2 bytes
  1775 ;; Hardware stack levels used: 1
  1776 ;; This function calls:
  1777 ;;		Nothing
  1778 ;; This function is called by:
  1779 ;;		Interrupt level 1
  1780 ;; This function uses a non-reentrant model
  1781 ;;
  1782                           
  1783  013F                     _ISR:	
  1784                           ;psect for function _ISR
  1785                           
  1786  013F                     i1l1097:
  1787                           
  1788                           ;interrupt.c: 9:       TMR0 = 200;
  1789  013F  30C8               	movlw	200
  1790  0140  0081               	movwf	1	;volatile
  1791                           
  1792                           ;interrupt.c: 10:       pulsePerTakt++;
  1793  0141  3001               	movlw	1
  1794  0142  07A9               	addwf	_pulsePerTakt,f
  1795  0143  1803               	skipnc
  1796  0144  0AAA               	incf	_pulsePerTakt+1,f
  1797  0145  3000               	movlw	0
  1798  0146  07AA               	addwf	_pulsePerTakt+1,f
  1799  0147                     i1l1099:
  1800                           
  1801                           ;interrupt.c: 11:    if(T0IF)
  1802  0147  1D0B               	btfss	11,2	;volatile
  1803  0148  294A               	goto	u22_21
  1804  0149  294B               	goto	u22_20
  1805  014A                     u22_21:
  1806  014A  2959               	goto	i1l1105
  1807  014B                     u22_20:
  1808  014B                     i1l1101:
  1809                           
  1810                           ;interrupt.c: 12:     {;interrupt.c: 13:         if (pulsePerTakt < pwmValue)
  1811  014B  082C               	movf	_pwmValue+1,w
  1812  014C  022A               	subwf	_pulsePerTakt+1,w
  1813  014D  1D03               	skipz
  1814  014E  2951               	goto	u23_25
  1815  014F  082B               	movf	_pwmValue,w
  1816  0150  0229               	subwf	_pulsePerTakt,w
  1817  0151                     u23_25:
  1818  0151  1803               	skipnc
  1819  0152  2954               	goto	u23_21
  1820  0153  2955               	goto	u23_20
  1821  0154                     u23_21:
  1822  0154  2957               	goto	i1l117
  1823  0155                     u23_20:
  1824  0155                     i1l1103:
  1825                           
  1826                           ;interrupt.c: 14:          {GP4 = 1;}
  1827  0155  1605               	bsf	5,4	;volatile
  1828  0156  2958               	goto	i1l118
  1829  0157                     i1l117:	
  1830                           ;interrupt.c: 15:         else
  1831                           
  1832                           
  1833                           ;interrupt.c: 16:    {GP4 = 0;}
  1834  0157  1205               	bcf	5,4	;volatile
  1835  0158                     i1l118:
  1836                           
  1837                           ;interrupt.c: 17:   T0IF = 0;
  1838  0158  110B               	bcf	11,2	;volatile
  1839  0159                     i1l1105:
  1840                           
  1841                           ;interrupt.c: 19:       if (pulsePerTakt > 100)
  1842  0159  3000               	movlw	0
  1843  015A  022A               	subwf	_pulsePerTakt+1,w
  1844  015B  3065               	movlw	101
  1845  015C  1903               	skipnz
  1846  015D  0229               	subwf	_pulsePerTakt,w
  1847  015E  1C03               	skipc
  1848  015F  2961               	goto	u24_21
  1849  0160  2962               	goto	u24_20
  1850  0161                     u24_21:
  1851  0161  2964               	goto	i1l120
  1852  0162                     u24_20:
  1853  0162                     i1l1107:
  1854                           
  1855                           ;interrupt.c: 20:        {;interrupt.c: 21:          pulsePerTakt = 0;
  1856  0162  01A9               	clrf	_pulsePerTakt
  1857  0163  01AA               	clrf	_pulsePerTakt+1
  1858  0164                     i1l120:
  1859  0164  0821               	movf	??_ISR+1,w
  1860  0165  008A               	movwf	10
  1861  0166  0E20               	swapf	??_ISR,w
  1862  0167  0083               	movwf	3
  1863  0168  0EDE               	swapf	btemp,f
  1864  0169  0E5E               	swapf	btemp,w
  1865  016A  0009               	retfie
  1866  016B                     __end_of_ISR:
  1867  005E                     btemp	set	94	;btemp
  1868  005E                     wtemp0	set	94
  1869                           
  1870                           	psect	intentry
  1871  0004                     __pintentry:	
  1872                           ;incstack = 0
  1873                           ; Regs used in _ISR: [wreg+status,2]
  1874                           
  1875  0004                     interrupt_function:
  1876  005E                     saved_w	set	btemp
  1877  0004  00DE               	movwf	btemp
  1878  0005  0E03               	swapf	3,w
  1879  0006  1283               	bcf	3,5	;RP0=0, select bank0
  1880  0007  00A0               	movwf	??_ISR
  1881  0008  080A               	movf	10,w
  1882  0009  00A1               	movwf	??_ISR+1
  1883  000A  293F               	ljmp	_ISR
  1884                           
  1885                           	psect	config
  1886                           
  1887                           ;Config register CONFIG @ 0x2007
  1888                           ;	Oscillator Selection bits
  1889                           ;	FOSC = INTRCIO, INTOSC oscillator: I/O function on GP4/OSC2/CLKOUT pin, I/O function o
      +                          n GP5/OSC1/CLKIN
  1890                           ;	Watchdog Timer Enable bit
  1891                           ;	WDTE = OFF, WDT disabled
  1892                           ;	Power-Up Timer Enable bit
  1893                           ;	PWRTE = OFF, PWRT disabled
  1894                           ;	GP3/MCLR pin function select
  1895                           ;	MCLRE = ON, GP3/MCLR pin function is MCLR
  1896                           ;	Brown-out Detect Enable bit
  1897                           ;	BOREN = ON, BOD enabled
  1898                           ;	Code Protection bit
  1899                           ;	CP = OFF, Program Memory code protection is disabled
  1900                           ;	Data Code Protection bit
  1901                           ;	CPD = OFF, Data memory code protection is disabled
  1902  2007                     	org	8199
  1903  2007  31F4               	dw	12788

Data Sizes:
    Strings     0
    Constant    0
    Data        0
    BSS         6
    Persistent  0
    Stack       0

Auto Spaces:
    Space          Size  Autos    Used
    COMMON            0      0       0
    BANK0            62      9      15

Pointer List with Targets:

    None.

Critical Paths under _main in COMMON

    None.

Critical Paths under _ISR in COMMON

    None.

Critical Paths under _main in BANK0

    _main->_Pin6VoltageControl
    _Pin7ThermoControl->_ThreeLongOneShort
    _Pin7ThermoControl->_ThreeShort
    _ThreeShort->_ShortSound
    _ThreeLongOneShort->_LongSound
    _ThreeLongOneShort->_ShortSound
    _Pin6VoltageControl->_TwoShortOneLong
    _Pin6VoltageControl->_TwoShortTwoLong
    _TwoShortTwoLong->_LongSound
    _TwoShortTwoLong->_ShortSound
    _TwoShortOneLong->_LongSound
    _TwoShortOneLong->_ShortSound

Critical Paths under _ISR in BANK0

    None.

Call Graph Tables:

 ---------------------------------------------------------------------------------
 (Depth) Function   	        Calls       Base Space   Used Autos Params    Refs
 ---------------------------------------------------------------------------------
 (0) _main                                                 0     0      0       0
                         _InitTimer0
                            _Init_uC
                 _Pin6VoltageControl
                  _Pin7ThermoControl
 ---------------------------------------------------------------------------------
 (1) _Pin7ThermoControl                                    0     0      0       0
                        _MeasureTemp
                  _ThreeLongOneShort
                         _ThreeShort
 ---------------------------------------------------------------------------------
 (2) _ThreeShort                                           3     3      0       0
                                              4 BANK0      3     3      0
                         _ShortSound
 ---------------------------------------------------------------------------------
 (2) _ThreeLongOneShort                                    3     3      0       0
                                              4 BANK0      3     3      0
                          _LongSound
                         _ShortSound
 ---------------------------------------------------------------------------------
 (2) _MeasureTemp                                          2     2      0       0
                                              2 BANK0      2     2      0
 ---------------------------------------------------------------------------------
 (1) _Pin6VoltageControl                                   2     2      0       0
                                              7 BANK0      2     2      0
                    _TwoShortOneLong
                    _TwoShortTwoLong
 ---------------------------------------------------------------------------------
 (2) _TwoShortTwoLong                                      3     3      0       0
                                              4 BANK0      3     3      0
                          _LongSound
                         _ShortSound
 ---------------------------------------------------------------------------------
 (2) _TwoShortOneLong                                      3     3      0       0
                                              4 BANK0      3     3      0
                          _LongSound
                         _ShortSound
 ---------------------------------------------------------------------------------
 (3) _ShortSound                                           2     2      0       0
                                              2 BANK0      2     2      0
 ---------------------------------------------------------------------------------
 (3) _LongSound                                            2     2      0       0
                                              2 BANK0      2     2      0
 ---------------------------------------------------------------------------------
 (1) _Init_uC                                              3     3      0       0
                                              2 BANK0      3     3      0
 ---------------------------------------------------------------------------------
 (1) _InitTimer0                                           1     1      0       0
                                              2 BANK0      1     1      0
 ---------------------------------------------------------------------------------
 Estimated maximum stack depth 3
 ---------------------------------------------------------------------------------
 (Depth) Function   	        Calls       Base Space   Used Autos Params    Refs
 ---------------------------------------------------------------------------------
 (4) _ISR                                                  2     2      0       0
                                              0 BANK0      2     2      0
 ---------------------------------------------------------------------------------
 Estimated maximum stack depth 4
 ---------------------------------------------------------------------------------

 Call Graph Graphs:

 _main (ROOT)
   _InitTimer0
   _Init_uC
   _Pin6VoltageControl
     _TwoShortOneLong
       _LongSound
       _ShortSound
     _TwoShortTwoLong
       _LongSound
       _ShortSound
   _Pin7ThermoControl
     _MeasureTemp
     _ThreeLongOneShort
       _LongSound
       _ShortSound
     _ThreeShort
       _ShortSound

 _ISR (ROOT)

 Address spaces:
Name               Size   Autos  Total    Cost      Usage
BITCOMMON            0      0       0       0        0.0%
EEDATA              80      0       0       0        0.0%
NULL                 0      0       0       0        0.0%
CODE                 0      0       0       0        0.0%
BITSFR0              0      0       0       1        0.0%
SFR0                 0      0       0       1        0.0%
COMMON               0      0       0       1        0.0%
BITSFR1              0      0       0       2        0.0%
SFR1                 0      0       0       2        0.0%
STACK                0      0       0       2        0.0%
BITBANK0            3E      0       0       3        0.0%
BANK0               3E      9       F       4       24.2%
ABS                  0      0       F       5        0.0%
DATA                 0      0       F       6        0.0%


Microchip Technology PIC Macro Assembler V2.36 build 20220127204148 
Symbol Table                                                                                   Sun Aug 20 12:07:36 2023

                        l70 00E8                          l67 0195                          l91 00C0  
                        l78 013E                          l95 00D6                          _GO 00F9  
                        l98 01A4                          u50 01A8                          u51 01A7  
                        u60 00EC                          u61 00EB                          u70 0109  
                        u71 0108                          u80 0117                          u81 0116  
                        u90 0129                          u91 0128                          u75 0105  
              _pulsePerTakt 0029                          u85 0113                          u95 0125  
                       l101 01B7                         l127 0235                         l162 022D  
                       l171 021B                         l156 01E3                         l165 0209  
                       l159 01CD                         l177 01F6                         l941 01D8  
                       l943 01B8                         l951 021F                         l937 01CE  
                       l945 01BA                         l953 01F7                         l961 0199  
                       l939 01D0                         l947 01C2                         l955 01FB  
                       l963 019A                         l971 01E4                         l981 017C  
                       l949 021C                         l965 01A2                         l957 0196  
                       l973 01E8                         _GP2 002A                         l991 0185  
                       l983 017E                         l967 01A8                         l959 0198  
                       l975 020A                         _GP4 002C                         l993 0187  
                       l985 017F                         l977 020D                         _GP5 002D  
                       l995 0189                         l987 0181                         l979 016B  
                       _GIE 005F                         l997 018B                         l989 0183  
                       l999 018D                         u100 013B                         u101 013A  
                       u105 0137                         u300 0075                         u301 0074  
                       u310 0089                         u311 0088                         u320 0097  
                       u321 0096                         u305 0071                         u330 00AB  
                       u250 0024                         u331 00AA                         u315 0085  
                       u251 0023                         u340 00B9                         u260 0038  
                       u341 00B8                         u325 0093                         u261 0037  
                       u350 00D6                         u270 0047                         u407 00E1  
                       u351 00D5                         u335 00A7                         u271 0046  
                       u255 0020                         u280 0055                         u417 00F0  
                       u345 00B5                         u281 0054                         u265 0034  
                       u290 0067                         u427 0202                         u355 00D2  
                       u291 0066                         u275 0043                         _ISR 013F  
                       u437 0226                         u285 0051                         u447 01BE  
                       u367 0214                         u295 0063                         u457 01C8  
                       u377 01EF                         u467 01D4                         u387 019E  
                       u477 01DE                         u397 01AC                         u487 0172  
         ??_TwoShortOneLong 0024                        ?_ISR 0020           ??_TwoShortTwoLong 0024  
                      l1001 018E                        l1003 018F                        l1011 00D7  
                      l1005 0191                        l1021 00DD                        l1013 00D9  
                      l1007 0192                        l1031 0117                        l1023 00E6  
                      l1015 00DA                        l1009 0194                        l1041 013B  
                      l1033 011B                        l1025 00EC                        l1017 00DB  
                      l1043 013D                        l1035 0129                        l1027 00FC  
                      l1019 00DC                        l1131 0026                        l1037 012B  
                      l1029 0109                        l1141 0047                        l1133 0028  
                      l1125 0015                        l1039 012D                        l1151 007B  
                      l1143 0055                        l1135 0029                        l1127 0016  
                      l1161 00B9                        l1153 0089                        l1145 0059  
                      l1137 002A                        l1129 0024                        l1171 00C8  
                      l1163 00BE                        l1155 0097                        l1147 0067  
                      l1139 0039                        l1093 022E                        l1165 00C2  
                      l1157 009D                        l1149 0075                        l1173 0236  
                      l1095 0234                        l1167 00C6                        l1159 00AB  
                      l1175 0238                        l1169 00C7                        l1177 0239  
                      l1179 023A                        _ADIF 0066                        _ADFM 00FF  
                      _ADON 00F8                        _CHS0 00FA                        _CHS1 00FB  
                      _T0IE 005D                        _T0IF 005A                        _GPIO 0005  
                      _VCFG 00FE                        _TMR0 0001                        _main 0236  
                      btemp 005E                        start 000B               ??_MeasureTemp 0022  
           __end_of_Init_uC 0196                       ??_ISR 0020                       ?_main 0020  
                     _CMCON 0019                       _ANSEL 009F                       i1l120 0164  
                     i1l117 0157                       i1l118 0158                       u22_20 014B  
                     u22_21 014A                       u23_20 0155                       u23_21 0154  
                     u23_25 0151                       u24_20 0162                       u24_21 0161  
                     _VRCON 0099                       pclath 000A                       status 0003  
                     wtemp0 005E  __end_of_Pin6VoltageControl 013F             __initialization 000C  
                _InitTimer0 022E                __end_of_main 023D         __end_of_MeasureTemp 01B8  
                    ??_main 0000                      _ADCON0 001F                      _ADRESH 001E  
                    _ADRESL 009E                      i1l1101 014B                      i1l1103 0155  
                    i1l1105 0159                      i1l1107 0162                      i1l1097 013F  
                    i1l1099 0147                      _TRISIO 0085                   ??_Init_uC 0022  
                _ThreeShort 020A                  _ShortSound 01B8                      saved_w 005E  
   __end_of__initialization 0013                 _MeasureTemp 0196                 ?_InitTimer0 0020  
            __pcstackCOMMON 0000             _TwoShortOneLong 021C             _TwoShortTwoLong 01F7  
         __end_of_LongSound 01E4                  __pbssBANK0 0029                  __pmaintext 0236  
                __pintentry 0004                 ?_ThreeShort 0020                 ?_ShortSound 0020  
                   _TRISIO0 0428                     _TRISIO1 0429                     _TRISIO2 042A  
                   _TRISIO4 042C                     _TRISIO5 042D     __end_of_TwoShortOneLong 022E  
                   _Init_uC 016B           _Pin7ThermoControl 0015     __end_of_TwoShortTwoLong 020A  
        ?_Pin7ThermoControl 0020         ??_Pin7ThermoControl 0000                     __ptext1 0015  
                   __ptext2 020A                     __ptext3 01E4                     __ptext4 0196  
                   __ptext5 00D7                     __ptext6 01F7                     __ptext7 021C  
                   __ptext8 01B8                     __ptext9 01CE          _Pin6VoltageControl 00D7  
       ?_Pin6VoltageControl 0020        end_of_initialization 0013   __end_of_Pin7ThermoControl 00D7  
      ??_Pin6VoltageControl 0027            ?_TwoShortOneLong 0020                ?_MeasureTemp 0020  
              ??_InitTimer0 0022            ?_TwoShortTwoLong 0020         start_initialization 000C  
               __end_of_ISR 016B          __end_of_InitTimer0 0236                   _LongSound 01CE  
              ??_ThreeShort 0024                ??_ShortSound 0022                   ___latbits 0000  
             __pcstackBANK0 0020                  ?_LongSound 0020          __end_of_ThreeShort 021C  
                  ?_Init_uC 0020          __end_of_ShortSound 01CE           interrupt_function 0004  
         _ThreeLongOneShort 01E4                 ??_LongSound 0022          ?_ThreeLongOneShort 0020  
       ??_ThreeLongOneShort 0024                    _adcValue 002D   __end_of_ThreeLongOneShort 01F7  
                  __ptext10 016B                    __ptext11 022E                    __ptext12 013F  
                  _pwmValue 002B                  _INTCONbits 000B                    intlevel1 0000  
                _OPTION_REG 0081  
