

Microchip MPLAB XC8 Assembler V2.36 build 20220127204148 
                                                                                               Sun Aug 27 18:25:56 2023

Microchip MPLAB XC8 C Compiler v2.36 (Free license) build 20220127204148 Og1 
     1                           	processor	12F675
     2                           	pagewidth 120
     3                           	opt	flic
     4                           	psect	cinit,global,class=CODE,merge=1,delta=2
     5                           	psect	bssBANK0,global,class=BANK0,space=1,delta=1,noexec
     6                           	psect	cstackCOMMON,global,class=COMMON,space=1,delta=1,noexec
     7                           	psect	cstackBANK0,global,class=BANK0,space=1,delta=1,noexec
     8                           	psect	maintext,global,class=CODE,split=1,delta=2
     9                           	psect	text1,local,class=CODE,merge=1,delta=2
    10                           	psect	text2,local,class=CODE,merge=1,delta=2
    11                           	psect	text3,local,class=CODE,merge=1,delta=2
    12                           	psect	text4,local,class=CODE,merge=1,delta=2
    13                           	psect	text5,local,class=CODE,merge=1,delta=2
    14                           	psect	text6,local,class=CODE,merge=1,delta=2
    15                           	psect	text7,local,class=CODE,merge=1,delta=2
    16                           	psect	text8,local,class=CODE,merge=1,delta=2
    17                           	psect	text9,local,class=CODE,merge=1,delta=2
    18                           	psect	text10,local,class=CODE,merge=1,delta=2
    19                           	psect	text11,local,class=CODE,merge=1,delta=2
    20                           	psect	text12,local,class=CODE,merge=1,delta=2
    21                           	psect	text13,local,class=CODE,merge=1,delta=2
    22                           	psect	intentry,global,class=CODE,delta=2
    23                           	psect	config,global,abs,ovrld,class=CONFIG,space=4,delta=2,noexec
    24                           	dabs	1,0x5E,2
    25  0000                     
    26                           ; Version 2.20
    27                           ; Generated 29/04/2020 GMT
    28                           ; 
    29                           ; Copyright © 2020, Microchip Technology Inc. and its subsidiaries ("Microchip")
    30                           ; All rights reserved.
    31                           ; 
    32                           ; This software is developed by Microchip Technology Inc. and its subsidiaries ("Microch
      +                          ip").
    33                           ; 
    34                           ; Redistribution and use in source and binary forms, with or without modification, are
    35                           ; permitted provided that the following conditions are met:
    36                           ; 
    37                           ;     1. Redistributions of source code must retain the above copyright notice, this lis
      +                          t of
    38                           ;        conditions and the following disclaimer.
    39                           ; 
    40                           ;     2. Redistributions in binary form must reproduce the above copyright notice, this 
      +                          list
    41                           ;        of conditions and the following disclaimer in the documentation and/or other
    42                           ;        materials provided with the distribution.
    43                           ; 
    44                           ;     3. Microchip's name may not be used to endorse or promote products derived from th
      +                          is
    45                           ;        software without specific prior written permission.
    46                           ; 
    47                           ; THIS SOFTWARE IS PROVIDED BY MICROCHIP "AS IS" AND ANY EXPRESS OR IMPLIED WARRANTIES,
    48                           ; INCLUDING, BUT NOT LIMITED TO, THE IMPLIED WARRANTIES OF MERCHANTABILITY AND FITNESS F
      +                          OR
    49                           ; PURPOSE ARE DISCLAIMED.  IN NO EVENT SHALL MICROCHIP BE LIABLE FOR ANY DIRECT, INDIREC
      +                          T,
    50                           ; INCIDENTAL, SPECIAL, EXEMPLARY, OR CONSEQUENTIAL DAMAGES (INCLUDING BUT NOT LIMITED TO
    51                           ; PROCUREMENT OF SUBSTITUTE GOODS OR SERVICES; LOSS OF USE, DATA OR PROFITS; OR BUSINESS
    52                           ; INTERRUPTION) HOWSOEVER CAUSED AND ON ANY THEORY OF LIABILITY, WHETHER IN CONTRACT, ST
      +                          RICT
    53                           ; LIABILITY, OR TORT (INCLUDING NEGLIGENCE OR OTHERWISE) ARISING IN ANY WAY OUT OF THE U
      +                          SE OF
    54                           ; THIS SOFTWARE, EVEN IF ADVISED OF THE POSSIBILITY OF SUCH DAMAGE.
    55                           ; 
    56                           ; 
    57                           ; Code-generator required, PIC12F675 Definitions
    58                           ; 
    59                           ; SFR Addresses
    60  0000                     	;# 
    61  0001                     	;# 
    62  0002                     	;# 
    63  0003                     	;# 
    64  0004                     	;# 
    65  0005                     	;# 
    66  000A                     	;# 
    67  000B                     	;# 
    68  000C                     	;# 
    69  000E                     	;# 
    70  000E                     	;# 
    71  000F                     	;# 
    72  0010                     	;# 
    73  0019                     	;# 
    74  001E                     	;# 
    75  001F                     	;# 
    76  0081                     	;# 
    77  0085                     	;# 
    78  008C                     	;# 
    79  008E                     	;# 
    80  0090                     	;# 
    81  0095                     	;# 
    82  0096                     	;# 
    83  0096                     	;# 
    84  0099                     	;# 
    85  009A                     	;# 
    86  009A                     	;# 
    87  009B                     	;# 
    88  009C                     	;# 
    89  009D                     	;# 
    90  009E                     	;# 
    91  009F                     	;# 
    92  0000                     	;# 
    93  0001                     	;# 
    94  0002                     	;# 
    95  0003                     	;# 
    96  0004                     	;# 
    97  0005                     	;# 
    98  000A                     	;# 
    99  000B                     	;# 
   100  000C                     	;# 
   101  000E                     	;# 
   102  000E                     	;# 
   103  000F                     	;# 
   104  0010                     	;# 
   105  0019                     	;# 
   106  001E                     	;# 
   107  001F                     	;# 
   108  0081                     	;# 
   109  0085                     	;# 
   110  008C                     	;# 
   111  008E                     	;# 
   112  0090                     	;# 
   113  0095                     	;# 
   114  0096                     	;# 
   115  0096                     	;# 
   116  0099                     	;# 
   117  009A                     	;# 
   118  009A                     	;# 
   119  009B                     	;# 
   120  009C                     	;# 
   121  009D                     	;# 
   122  009E                     	;# 
   123  009F                     	;# 
   124  0000                     	;# 
   125  0001                     	;# 
   126  0002                     	;# 
   127  0003                     	;# 
   128  0004                     	;# 
   129  0005                     	;# 
   130  000A                     	;# 
   131  000B                     	;# 
   132  000C                     	;# 
   133  000E                     	;# 
   134  000E                     	;# 
   135  000F                     	;# 
   136  0010                     	;# 
   137  0019                     	;# 
   138  001E                     	;# 
   139  001F                     	;# 
   140  0081                     	;# 
   141  0085                     	;# 
   142  008C                     	;# 
   143  008E                     	;# 
   144  0090                     	;# 
   145  0095                     	;# 
   146  0096                     	;# 
   147  0096                     	;# 
   148  0099                     	;# 
   149  009A                     	;# 
   150  009A                     	;# 
   151  009B                     	;# 
   152  009C                     	;# 
   153  009D                     	;# 
   154  009E                     	;# 
   155  009F                     	;# 
   156  0000                     	;# 
   157  0001                     	;# 
   158  0002                     	;# 
   159  0003                     	;# 
   160  0004                     	;# 
   161  0005                     	;# 
   162  000A                     	;# 
   163  000B                     	;# 
   164  000C                     	;# 
   165  000E                     	;# 
   166  000E                     	;# 
   167  000F                     	;# 
   168  0010                     	;# 
   169  0019                     	;# 
   170  001E                     	;# 
   171  001F                     	;# 
   172  0081                     	;# 
   173  0085                     	;# 
   174  008C                     	;# 
   175  008E                     	;# 
   176  0090                     	;# 
   177  0095                     	;# 
   178  0096                     	;# 
   179  0096                     	;# 
   180  0099                     	;# 
   181  009A                     	;# 
   182  009A                     	;# 
   183  009B                     	;# 
   184  009C                     	;# 
   185  009D                     	;# 
   186  009E                     	;# 
   187  009F                     	;# 
   188  0000                     	;# 
   189  0001                     	;# 
   190  0002                     	;# 
   191  0003                     	;# 
   192  0004                     	;# 
   193  0005                     	;# 
   194  000A                     	;# 
   195  000B                     	;# 
   196  000C                     	;# 
   197  000E                     	;# 
   198  000E                     	;# 
   199  000F                     	;# 
   200  0010                     	;# 
   201  0019                     	;# 
   202  001E                     	;# 
   203  001F                     	;# 
   204  0081                     	;# 
   205  0085                     	;# 
   206  008C                     	;# 
   207  008E                     	;# 
   208  0090                     	;# 
   209  0095                     	;# 
   210  0096                     	;# 
   211  0096                     	;# 
   212  0099                     	;# 
   213  009A                     	;# 
   214  009A                     	;# 
   215  009B                     	;# 
   216  009C                     	;# 
   217  009D                     	;# 
   218  009E                     	;# 
   219  009F                     	;# 
   220  0000                     	;# 
   221  0001                     	;# 
   222  0002                     	;# 
   223  0003                     	;# 
   224  0004                     	;# 
   225  0005                     	;# 
   226  000A                     	;# 
   227  000B                     	;# 
   228  000C                     	;# 
   229  000E                     	;# 
   230  000E                     	;# 
   231  000F                     	;# 
   232  0010                     	;# 
   233  0019                     	;# 
   234  001E                     	;# 
   235  001F                     	;# 
   236  0081                     	;# 
   237  0085                     	;# 
   238  008C                     	;# 
   239  008E                     	;# 
   240  0090                     	;# 
   241  0095                     	;# 
   242  0096                     	;# 
   243  0096                     	;# 
   244  0099                     	;# 
   245  009A                     	;# 
   246  009A                     	;# 
   247  009B                     	;# 
   248  009C                     	;# 
   249  009D                     	;# 
   250  009E                     	;# 
   251  009F                     	;# 
   252  000B                     _INTCONbits	set	11
   253  0001                     _TMR0	set	1
   254  001E                     _ADRESH	set	30
   255  001F                     _ADCON0	set	31
   256  0005                     _GPIO	set	5
   257  0019                     _CMCON	set	25
   258  005D                     _T0IE	set	93
   259  005A                     _T0IF	set	90
   260  00FA                     _CHS0	set	250
   261  00FB                     _CHS1	set	251
   262  0066                     _ADIF	set	102
   263  00F9                     _GO	set	249
   264  00FF                     _ADFM	set	255
   265  005F                     _GIE	set	95
   266  00FE                     _VCFG	set	254
   267  00F8                     _ADON	set	248
   268  002C                     _GP4	set	44
   269  002D                     _GP5	set	45
   270  002A                     _GP2	set	42
   271  0081                     _OPTION_REG	set	129
   272  009E                     _ADRESL	set	158
   273  009F                     _ANSEL	set	159
   274  0085                     _TRISIO	set	133
   275  0099                     _VRCON	set	153
   276  0429                     _TRISIO1	set	1065
   277  0428                     _TRISIO0	set	1064
   278  042C                     _TRISIO4	set	1068
   279  042D                     _TRISIO5	set	1069
   280  042A                     _TRISIO2	set	1066
   281                           
   282                           	psect	cinit
   283  000C                     start_initialization:	
   284                           ; #config settings
   285                           
   286  000C                     __initialization:
   287                           
   288                           ; Clear objects allocated to BANK0
   289  000C  1283               	bcf	3,5	;RP0=0, select bank0
   290  000D  01AA               	clrf	__pbssBANK0& (0+127)
   291  000E  01AB               	clrf	(__pbssBANK0+1)& (0+127)
   292  000F  01AC               	clrf	(__pbssBANK0+2)& (0+127)
   293  0010  01AD               	clrf	(__pbssBANK0+3)& (0+127)
   294  0011  01AE               	clrf	(__pbssBANK0+4)& (0+127)
   295  0012  01AF               	clrf	(__pbssBANK0+5)& (0+127)
   296  0013  01B0               	clrf	(__pbssBANK0+6)& (0+127)
   297  0014                     end_of_initialization:	
   298                           ;End of C runtime variable initialization code
   299                           
   300  0014                     __end_of__initialization:
   301  0014  0183               	clrf	3
   302  0015  2A18               	ljmp	_main	;jump to C main() function
   303                           
   304                           	psect	bssBANK0
   305  002A                     __pbssBANK0:
   306  002A                     _pulsePerTakt:
   307  002A                     	ds	2
   308  002C                     _pwmValue:
   309  002C                     	ds	2
   310  002E                     _adcValue:
   311  002E                     	ds	2
   312  0030                     _errorFlag:
   313  0030                     	ds	1
   314                           
   315                           	psect	cstackCOMMON
   316  0000                     __pcstackCOMMON:
   317  0000                     ??_Pin6VoltageControl:
   318  0000                     ??_Pin7ThermoControl:	
   319                           ; 1 bytes @ 0x0
   320                           
   321                           
   322                           	psect	cstackBANK0
   323  0020                     __pcstackBANK0:	
   324                           ; 1 bytes @ 0x0
   325                           
   326  0020                     ?_LongSound:
   327  0020                     ?_TwoShortOneLong:	
   328                           ; 1 bytes @ 0x0
   329                           
   330  0020                     ?_TwoShortTwoLong:	
   331                           ; 1 bytes @ 0x0
   332                           
   333  0020                     ?_ThreeLongOneShort:	
   334                           ; 1 bytes @ 0x0
   335                           
   336  0020                     ?_ThreeShort:	
   337                           ; 1 bytes @ 0x0
   338                           
   339  0020                     ?_Init_uC:	
   340                           ; 1 bytes @ 0x0
   341                           
   342  0020                     ?_Pin6VoltageControl:	
   343                           ; 1 bytes @ 0x0
   344                           
   345  0020                     ?_Pin7ThermoControl:	
   346                           ; 1 bytes @ 0x0
   347                           
   348  0020                     ?_ISR:	
   349                           ; 1 bytes @ 0x0
   350                           
   351  0020                     ??_ISR:	
   352                           ; 1 bytes @ 0x0
   353                           
   354  0020                     ?_InitTimer0:	
   355                           ; 1 bytes @ 0x0
   356                           
   357  0020                     ?_main:	
   358                           ; 1 bytes @ 0x0
   359                           
   360  0020                     ?_ShortSound:	
   361                           ; 1 bytes @ 0x0
   362                           
   363  0020                     ?_MeasureVoltage:	
   364                           ; 1 bytes @ 0x0
   365                           
   366  0020                     ?_MeasureTemp:	
   367                           ; 2 bytes @ 0x0
   368                           
   369                           
   370                           ; 2 bytes @ 0x0
   371  0020                     	ds	2
   372  0022                     ??_LongSound:
   373  0022                     ??_MeasureVoltage:	
   374                           ; 1 bytes @ 0x2
   375                           
   376  0022                     ??_MeasureTemp:	
   377                           ; 1 bytes @ 0x2
   378                           
   379  0022                     ??_InitTimer0:	
   380                           ; 1 bytes @ 0x2
   381                           
   382  0022                     ??_ShortSound:	
   383                           ; 1 bytes @ 0x2
   384                           
   385                           
   386                           ; 1 bytes @ 0x2
   387  0022                     	ds	2
   388  0024                     ??_TwoShortOneLong:
   389  0024                     ??_TwoShortTwoLong:	
   390                           ; 1 bytes @ 0x4
   391                           
   392  0024                     ??_ThreeLongOneShort:	
   393                           ; 1 bytes @ 0x4
   394                           
   395  0024                     ??_ThreeShort:	
   396                           ; 1 bytes @ 0x4
   397                           
   398  0024                     ??_Init_uC:	
   399                           ; 1 bytes @ 0x4
   400                           
   401                           
   402                           ; 1 bytes @ 0x4
   403  0024                     	ds	3
   404  0027                     ??_main:
   405                           
   406                           ; 1 bytes @ 0x7
   407  0027                     	ds	3
   408                           
   409                           	psect	maintext
   410  0218                     __pmaintext:	
   411 ;;
   412 ;;Main: autosize = 0, tempsize = 3, incstack = 0, save=0
   413 ;;
   414 ;; *************** function _main *****************
   415 ;; Defined at:
   416 ;;		line 63 in file "main.c"
   417 ;; Parameters:    Size  Location     Type
   418 ;;		None
   419 ;; Auto vars:     Size  Location     Type
   420 ;;		None
   421 ;; Return value:  Size  Location     Type
   422 ;;                  1    wreg      void 
   423 ;; Registers used:
   424 ;;		wreg, status,2, status,0, btemp+1, pclath, cstack
   425 ;; Tracked objects:
   426 ;;		On entry : B00/0
   427 ;;		On exit  : 0/0
   428 ;;		Unchanged: 0/0
   429 ;; Data sizes:     COMMON   BANK0
   430 ;;      Params:         0       0
   431 ;;      Locals:         0       0
   432 ;;      Temps:          0       3
   433 ;;      Totals:         0       3
   434 ;;Total ram usage:        3 bytes
   435 ;; Hardware stack levels required when called: 4
   436 ;; This function calls:
   437 ;;		_InitTimer0
   438 ;;		_Init_uC
   439 ;;		_Pin6VoltageControl
   440 ;;		_Pin7ThermoControl
   441 ;; This function is called by:
   442 ;;		Startup code after reset
   443 ;; This function uses a non-reentrant model
   444 ;;
   445                           
   446  0218                     _main:	
   447                           ;psect for function _main
   448                           
   449  0218                     l1226:	
   450                           ;incstack = 0
   451                           ; Regs used in _main: [wreg+status,2+status,0+btemp+1+pclath+cstack]
   452                           
   453  0218  300C               	movlw	12
   454  0219  1283               	bcf	3,5	;RP0=0, select bank0
   455  021A  00A9               	movwf	??_main+2
   456  021B  30AB               	movlw	171
   457  021C  00A8               	movwf	??_main+1
   458  021D  30F9               	movlw	249
   459  021E  00A7               	movwf	??_main
   460  021F                     u427:
   461  021F  0BA7               	decfsz	??_main,f
   462  0220  2A1F               	goto	u427
   463  0221  0BA8               	decfsz	??_main+1,f
   464  0222  2A1F               	goto	u427
   465  0223  0BA9               	decfsz	??_main+2,f
   466  0224  2A1F               	goto	u427
   467  0225  2A26               	nop2
   468  0226                     l1228:
   469  0226  2277               	fcall	_InitTimer0
   470  0227                     l1230:
   471  0227  214C               	fcall	_Init_uC
   472  0228                     l1232:
   473  0228  178B               	bsf	11,7	;volatile
   474  0229                     l1234:
   475  0229  20D8               	fcall	_Pin6VoltageControl
   476  022A                     l1236:
   477  022A  2016               	fcall	_Pin7ThermoControl
   478  022B  2A29               	goto	l1234
   479  022C  280B               	ljmp	start
   480  022D                     __end_of_main:
   481                           
   482                           	psect	text1
   483  0016                     __ptext1:	
   484 ;; *************** function _Pin7ThermoControl *****************
   485 ;; Defined at:
   486 ;;		line 81 in file "ADC.c"
   487 ;; Parameters:    Size  Location     Type
   488 ;;		None
   489 ;; Auto vars:     Size  Location     Type
   490 ;;		None
   491 ;; Return value:  Size  Location     Type
   492 ;;                  1    wreg      void 
   493 ;; Registers used:
   494 ;;		wreg, status,2, status,0, btemp+1, pclath, cstack
   495 ;; Tracked objects:
   496 ;;		On entry : 0/0
   497 ;;		On exit  : 0/0
   498 ;;		Unchanged: 0/0
   499 ;; Data sizes:     COMMON   BANK0
   500 ;;      Params:         0       0
   501 ;;      Locals:         0       0
   502 ;;      Temps:          0       0
   503 ;;      Totals:         0       0
   504 ;;Total ram usage:        0 bytes
   505 ;; Hardware stack levels used: 1
   506 ;; Hardware stack levels required when called: 3
   507 ;; This function calls:
   508 ;;		_MeasureTemp
   509 ;;		_ThreeLongOneShort
   510 ;;		_ThreeShort
   511 ;; This function is called by:
   512 ;;		_main
   513 ;; This function uses a non-reentrant model
   514 ;;
   515                           
   516  0016                     _Pin7ThermoControl:	
   517                           ;psect for function _Pin7ThermoControl
   518                           
   519  0016                     l1178:	
   520                           ;incstack = 0
   521                           ; Regs used in _Pin7ThermoControl: [wreg+status,2+status,0+btemp+1+pclath+cstack]
   522                           
   523                           
   524                           ;ADC.c: 83:        MeasureTemp();
   525  0016  21CA               	fcall	_MeasureTemp
   526  0017                     l1180:
   527                           
   528                           ;ADC.c: 85:              if (adcValue < 200)
   529  0017  1283               	bcf	3,5	;RP0=0, select bank0
   530  0018  082F               	movf	_adcValue+1,w
   531  0019  3A80               	xorlw	128
   532  001A  00DF               	movwf	btemp+1
   533  001B  3080               	movlw	128
   534  001C  025F               	subwf	btemp+1,w
   535  001D  1D03               	skipz
   536  001E  2821               	goto	u315
   537  001F  30C8               	movlw	200
   538  0020  022E               	subwf	_adcValue,w
   539  0021                     u315:
   540  0021  1803               	skipnc
   541  0022  2824               	goto	u311
   542  0023  2825               	goto	u310
   543  0024                     u311:
   544  0024  283A               	goto	l1192
   545  0025                     u310:
   546  0025                     l1182:
   547                           
   548                           ;ADC.c: 86:          {;ADC.c: 87:         GP5 = 1;
   549  0025  1283               	bcf	3,5	;RP0=0, select bank0
   550  0026  1685               	bsf	5,5	;volatile
   551  0027                     l1184:
   552                           
   553                           ;ADC.c: 88:               pwmValue = 0;
   554  0027  01AC               	clrf	_pwmValue
   555  0028  01AD               	clrf	_pwmValue+1
   556  0029                     l1186:
   557                           
   558                           ;ADC.c: 90:         MeasureTemp();
   559  0029  21CA               	fcall	_MeasureTemp
   560  002A                     l1188:
   561                           
   562                           ;ADC.c: 91:         ThreeLongOneShort();
   563  002A  222D               	fcall	_ThreeLongOneShort
   564  002B                     l1190:
   565                           
   566                           ;ADC.c: 92:        }
   567  002B  1283               	bcf	3,5	;RP0=0, select bank0
   568  002C  082F               	movf	_adcValue+1,w
   569  002D  3A80               	xorlw	128
   570  002E  00DF               	movwf	btemp+1
   571  002F  3080               	movlw	128
   572  0030  025F               	subwf	btemp+1,w
   573  0031  1D03               	skipz
   574  0032  2835               	goto	u325
   575  0033  30C8               	movlw	200
   576  0034  022E               	subwf	_adcValue,w
   577  0035                     u325:
   578  0035  1C03               	skipc
   579  0036  2838               	goto	u321
   580  0037  2839               	goto	u320
   581  0038                     u321:
   582  0038  2829               	goto	l1186
   583  0039                     u320:
   584  0039  28D7               	goto	l106
   585  003A                     l1192:
   586  003A  1283               	bcf	3,5	;RP0=0, select bank0
   587  003B  082F               	movf	_adcValue+1,w
   588  003C  3A80               	xorlw	128
   589  003D  00DF               	movwf	btemp+1
   590  003E  3080               	movlw	128
   591  003F  025F               	subwf	btemp+1,w
   592  0040  1D03               	skipz
   593  0041  2844               	goto	u335
   594  0042  30C8               	movlw	200
   595  0043  022E               	subwf	_adcValue,w
   596  0044                     u335:
   597  0044  1C03               	skipc
   598  0045  2847               	goto	u331
   599  0046  2848               	goto	u330
   600  0047                     u331:
   601  0047  285A               	goto	l1198
   602  0048                     u330:
   603  0048                     l1194:
   604  0048  1283               	bcf	3,5	;RP0=0, select bank0
   605  0049  082F               	movf	_adcValue+1,w
   606  004A  3A80               	xorlw	128
   607  004B  00DF               	movwf	btemp+1
   608  004C  3083               	movlw	131
   609  004D  025F               	subwf	btemp+1,w
   610  004E  1D03               	skipz
   611  004F  2852               	goto	u345
   612  0050  3070               	movlw	112
   613  0051  022E               	subwf	_adcValue,w
   614  0052                     u345:
   615  0052  1803               	skipnc
   616  0053  2855               	goto	u341
   617  0054  2856               	goto	u340
   618  0055                     u341:
   619  0055  285A               	goto	l1198
   620  0056                     u340:
   621  0056                     l1196:
   622                           
   623                           ;ADC.c: 99:                         pwmValue = 0;
   624  0056  1283               	bcf	3,5	;RP0=0, select bank0
   625  0057  01AC               	clrf	_pwmValue
   626  0058  01AD               	clrf	_pwmValue+1
   627                           
   628                           ;ADC.c: 100:                        }
   629  0059  28D7               	goto	l106
   630  005A                     l1198:
   631  005A  1283               	bcf	3,5	;RP0=0, select bank0
   632  005B  082F               	movf	_adcValue+1,w
   633  005C  3A80               	xorlw	128
   634  005D  00DF               	movwf	btemp+1
   635  005E  3083               	movlw	131
   636  005F  025F               	subwf	btemp+1,w
   637  0060  1D03               	skipz
   638  0061  2864               	goto	u355
   639  0062  3070               	movlw	112
   640  0063  022E               	subwf	_adcValue,w
   641  0064                     u355:
   642  0064  1C03               	skipc
   643  0065  2867               	goto	u351
   644  0066  2868               	goto	u350
   645  0067                     u351:
   646  0067  287C               	goto	l1204
   647  0068                     u350:
   648  0068                     l1200:
   649  0068  1283               	bcf	3,5	;RP0=0, select bank0
   650  0069  082F               	movf	_adcValue+1,w
   651  006A  3A80               	xorlw	128
   652  006B  00DF               	movwf	btemp+1
   653  006C  3083               	movlw	131
   654  006D  025F               	subwf	btemp+1,w
   655  006E  1D03               	skipz
   656  006F  2872               	goto	u365
   657  0070  308E               	movlw	142
   658  0071  022E               	subwf	_adcValue,w
   659  0072                     u365:
   660  0072  1803               	skipnc
   661  0073  2875               	goto	u361
   662  0074  2876               	goto	u360
   663  0075                     u361:
   664  0075  287C               	goto	l1204
   665  0076                     u360:
   666  0076                     l1202:
   667                           
   668                           ;ADC.c: 103:                         pwmValue = 30;
   669  0076  301E               	movlw	30
   670  0077  1283               	bcf	3,5	;RP0=0, select bank0
   671  0078  00AC               	movwf	_pwmValue
   672  0079  3000               	movlw	0
   673  007A  00AD               	movwf	_pwmValue+1
   674                           
   675                           ;ADC.c: 104:                        }
   676  007B  28D7               	goto	l106
   677  007C                     l1204:
   678  007C  1283               	bcf	3,5	;RP0=0, select bank0
   679  007D  082F               	movf	_adcValue+1,w
   680  007E  3A80               	xorlw	128
   681  007F  00DF               	movwf	btemp+1
   682  0080  3083               	movlw	131
   683  0081  025F               	subwf	btemp+1,w
   684  0082  1D03               	skipz
   685  0083  2886               	goto	u375
   686  0084  308E               	movlw	142
   687  0085  022E               	subwf	_adcValue,w
   688  0086                     u375:
   689  0086  1C03               	skipc
   690  0087  2889               	goto	u371
   691  0088  288A               	goto	u370
   692  0089                     u371:
   693  0089  289E               	goto	l1210
   694  008A                     u370:
   695  008A                     l1206:
   696  008A  1283               	bcf	3,5	;RP0=0, select bank0
   697  008B  082F               	movf	_adcValue+1,w
   698  008C  3A80               	xorlw	128
   699  008D  00DF               	movwf	btemp+1
   700  008E  3083               	movlw	131
   701  008F  025F               	subwf	btemp+1,w
   702  0090  1D03               	skipz
   703  0091  2894               	goto	u385
   704  0092  30AC               	movlw	172
   705  0093  022E               	subwf	_adcValue,w
   706  0094                     u385:
   707  0094  1803               	skipnc
   708  0095  2897               	goto	u381
   709  0096  2898               	goto	u380
   710  0097                     u381:
   711  0097  289E               	goto	l1210
   712  0098                     u380:
   713  0098                     l1208:
   714                           
   715                           ;ADC.c: 107:                         pwmValue = 45;
   716  0098  302D               	movlw	45
   717  0099  1283               	bcf	3,5	;RP0=0, select bank0
   718  009A  00AC               	movwf	_pwmValue
   719  009B  3000               	movlw	0
   720  009C  00AD               	movwf	_pwmValue+1
   721                           
   722                           ;ADC.c: 108:                        }
   723  009D  28D7               	goto	l106
   724  009E                     l1210:
   725  009E  1283               	bcf	3,5	;RP0=0, select bank0
   726  009F  082F               	movf	_adcValue+1,w
   727  00A0  3A80               	xorlw	128
   728  00A1  00DF               	movwf	btemp+1
   729  00A2  3083               	movlw	131
   730  00A3  025F               	subwf	btemp+1,w
   731  00A4  1D03               	skipz
   732  00A5  28A8               	goto	u395
   733  00A6  30AC               	movlw	172
   734  00A7  022E               	subwf	_adcValue,w
   735  00A8                     u395:
   736  00A8  1C03               	skipc
   737  00A9  28AB               	goto	u391
   738  00AA  28AC               	goto	u390
   739  00AB                     u391:
   740  00AB  28C1               	goto	l102
   741  00AC                     u390:
   742  00AC                     l1212:
   743  00AC  1283               	bcf	3,5	;RP0=0, select bank0
   744  00AD  082F               	movf	_adcValue+1,w
   745  00AE  3A80               	xorlw	128
   746  00AF  00DF               	movwf	btemp+1
   747  00B0  3083               	movlw	131
   748  00B1  025F               	subwf	btemp+1,w
   749  00B2  1D03               	skipz
   750  00B3  28B6               	goto	u405
   751  00B4  30CA               	movlw	202
   752  00B5  022E               	subwf	_adcValue,w
   753  00B6                     u405:
   754  00B6  1803               	skipnc
   755  00B7  28B9               	goto	u401
   756  00B8  28BA               	goto	u400
   757  00B9                     u401:
   758  00B9  28C1               	goto	l102
   759  00BA                     u400:
   760  00BA                     l1214:
   761                           
   762                           ;ADC.c: 111:                         pwmValue = 55;
   763  00BA  3037               	movlw	55
   764  00BB  1283               	bcf	3,5	;RP0=0, select bank0
   765  00BC  00AC               	movwf	_pwmValue
   766  00BD  3000               	movlw	0
   767  00BE  00AD               	movwf	_pwmValue+1
   768  00BF                     l1216:
   769                           
   770                           ;ADC.c: 112:                         ThreeShort();
   771  00BF  2253               	fcall	_ThreeShort
   772                           
   773                           ;ADC.c: 113:                        }
   774  00C0  28D7               	goto	l106
   775  00C1                     l102:	
   776                           ;ADC.c: 114:              else {
   777                           
   778                           
   779                           ;ADC.c: 115:                  GP5 = 1;
   780  00C1  1283               	bcf	3,5	;RP0=0, select bank0
   781  00C2  1685               	bsf	5,5	;volatile
   782  00C3                     l1218:
   783                           
   784                           ;ADC.c: 116:                         pwmValue = 85;
   785  00C3  3055               	movlw	85
   786  00C4  00AC               	movwf	_pwmValue
   787  00C5  3000               	movlw	0
   788  00C6  00AD               	movwf	_pwmValue+1
   789  00C7                     l1220:
   790                           
   791                           ;ADC.c: 118:                         MeasureTemp();
   792  00C7  21CA               	fcall	_MeasureTemp
   793  00C8                     l1222:
   794                           
   795                           ;ADC.c: 119:    ThreeShort();
   796  00C8  2253               	fcall	_ThreeShort
   797  00C9                     l1224:
   798                           
   799                           ;ADC.c: 120:         }
   800  00C9  1283               	bcf	3,5	;RP0=0, select bank0
   801  00CA  082F               	movf	_adcValue+1,w
   802  00CB  3A80               	xorlw	128
   803  00CC  00DF               	movwf	btemp+1
   804  00CD  3083               	movlw	131
   805  00CE  025F               	subwf	btemp+1,w
   806  00CF  1D03               	skipz
   807  00D0  28D3               	goto	u415
   808  00D1  30CA               	movlw	202
   809  00D2  022E               	subwf	_adcValue,w
   810  00D3                     u415:
   811  00D3  1803               	skipnc
   812  00D4  28D6               	goto	u411
   813  00D5  28D7               	goto	u410
   814  00D6                     u411:
   815  00D6  28C7               	goto	l1220
   816  00D7                     u410:
   817  00D7                     l106:
   818  00D7  0008               	return
   819  00D8                     __end_of_Pin7ThermoControl:
   820                           
   821                           	psect	text2
   822  0253                     __ptext2:	
   823 ;; *************** function _ThreeShort *****************
   824 ;; Defined at:
   825 ;;		line 35 in file "sounds.c"
   826 ;; Parameters:    Size  Location     Type
   827 ;;		None
   828 ;; Auto vars:     Size  Location     Type
   829 ;;		None
   830 ;; Return value:  Size  Location     Type
   831 ;;                  1    wreg      void 
   832 ;; Registers used:
   833 ;;		wreg, status,2, status,0, pclath, cstack
   834 ;; Tracked objects:
   835 ;;		On entry : 0/0
   836 ;;		On exit  : 0/0
   837 ;;		Unchanged: 0/0
   838 ;; Data sizes:     COMMON   BANK0
   839 ;;      Params:         0       0
   840 ;;      Locals:         0       0
   841 ;;      Temps:          0       3
   842 ;;      Totals:         0       3
   843 ;;Total ram usage:        3 bytes
   844 ;; Hardware stack levels used: 1
   845 ;; Hardware stack levels required when called: 2
   846 ;; This function calls:
   847 ;;		_ShortSound
   848 ;; This function is called by:
   849 ;;		_Pin7ThermoControl
   850 ;; This function uses a non-reentrant model
   851 ;;
   852                           
   853  0253                     _ThreeShort:	
   854                           ;psect for function _ThreeShort
   855                           
   856  0253                     l1028:	
   857                           ;incstack = 0
   858                           ; Regs used in _ThreeShort: [wreg+status,2+status,0+pclath+cstack]
   859                           
   860                           
   861                           ;sounds.c: 36:    ShortSound();
   862  0253  21EC               	fcall	_ShortSound
   863                           
   864                           ;sounds.c: 37:    ShortSound();
   865  0254  21EC               	fcall	_ShortSound
   866                           
   867                           ;sounds.c: 38:    ShortSound();
   868  0255  21EC               	fcall	_ShortSound
   869  0256                     l1030:
   870                           
   871                           ;sounds.c: 39:    _delay((unsigned long)((700)*(4000000/4000.0)));
   872  0256  3004               	movlw	4
   873  0257  1283               	bcf	3,5	;RP0=0, select bank0
   874  0258  00A6               	movwf	??_ThreeShort+2
   875  0259  308E               	movlw	142
   876  025A  00A5               	movwf	??_ThreeShort+1
   877  025B  3012               	movlw	18
   878  025C  00A4               	movwf	??_ThreeShort
   879  025D                     u437:
   880  025D  0BA4               	decfsz	??_ThreeShort,f
   881  025E  2A5D               	goto	u437
   882  025F  0BA5               	decfsz	??_ThreeShort+1,f
   883  0260  2A5D               	goto	u437
   884  0261  0BA6               	decfsz	??_ThreeShort+2,f
   885  0262  2A5D               	goto	u437
   886  0263  0000               	nop
   887  0264                     l187:
   888  0264  0008               	return
   889  0265                     __end_of_ThreeShort:
   890                           
   891                           	psect	text3
   892  022D                     __ptext3:	
   893 ;; *************** function _ThreeLongOneShort *****************
   894 ;; Defined at:
   895 ;;		line 42 in file "sounds.c"
   896 ;; Parameters:    Size  Location     Type
   897 ;;		None
   898 ;; Auto vars:     Size  Location     Type
   899 ;;		None
   900 ;; Return value:  Size  Location     Type
   901 ;;                  1    wreg      void 
   902 ;; Registers used:
   903 ;;		wreg, status,2, status,0, pclath, cstack
   904 ;; Tracked objects:
   905 ;;		On entry : 0/0
   906 ;;		On exit  : 0/0
   907 ;;		Unchanged: 0/0
   908 ;; Data sizes:     COMMON   BANK0
   909 ;;      Params:         0       0
   910 ;;      Locals:         0       0
   911 ;;      Temps:          0       3
   912 ;;      Totals:         0       3
   913 ;;Total ram usage:        3 bytes
   914 ;; Hardware stack levels used: 1
   915 ;; Hardware stack levels required when called: 2
   916 ;; This function calls:
   917 ;;		_LongSound
   918 ;;		_ShortSound
   919 ;; This function is called by:
   920 ;;		_Pin7ThermoControl
   921 ;; This function uses a non-reentrant model
   922 ;;
   923                           
   924  022D                     _ThreeLongOneShort:	
   925                           ;psect for function _ThreeLongOneShort
   926                           
   927  022D                     l1024:	
   928                           ;incstack = 0
   929                           ; Regs used in _ThreeLongOneShort: [wreg+status,2+status,0+pclath+cstack]
   930                           
   931                           
   932                           ;sounds.c: 43:    LongSound();
   933  022D  2202               	fcall	_LongSound
   934                           
   935                           ;sounds.c: 44:    LongSound();
   936  022E  2202               	fcall	_LongSound
   937                           
   938                           ;sounds.c: 45:    LongSound();
   939  022F  2202               	fcall	_LongSound
   940                           
   941                           ;sounds.c: 46:    ShortSound();
   942  0230  21EC               	fcall	_ShortSound
   943  0231                     l1026:
   944                           
   945                           ;sounds.c: 47:    _delay((unsigned long)((700)*(4000000/4000.0)));
   946  0231  3004               	movlw	4
   947  0232  1283               	bcf	3,5	;RP0=0, select bank0
   948  0233  00A6               	movwf	??_ThreeLongOneShort+2
   949  0234  308E               	movlw	142
   950  0235  00A5               	movwf	??_ThreeLongOneShort+1
   951  0236  3012               	movlw	18
   952  0237  00A4               	movwf	??_ThreeLongOneShort
   953  0238                     u447:
   954  0238  0BA4               	decfsz	??_ThreeLongOneShort,f
   955  0239  2A38               	goto	u447
   956  023A  0BA5               	decfsz	??_ThreeLongOneShort+1,f
   957  023B  2A38               	goto	u447
   958  023C  0BA6               	decfsz	??_ThreeLongOneShort+2,f
   959  023D  2A38               	goto	u447
   960  023E  0000               	nop
   961  023F                     l190:
   962  023F  0008               	return
   963  0240                     __end_of_ThreeLongOneShort:
   964                           
   965                           	psect	text4
   966  01CA                     __ptext4:	
   967 ;; *************** function _MeasureTemp *****************
   968 ;; Defined at:
   969 ;;		line 125 in file "ADC.c"
   970 ;; Parameters:    Size  Location     Type
   971 ;;		None
   972 ;; Auto vars:     Size  Location     Type
   973 ;;		None
   974 ;; Return value:  Size  Location     Type
   975 ;;                  2   46[None  ] int 
   976 ;; Registers used:
   977 ;;		wreg, status,2
   978 ;; Tracked objects:
   979 ;;		On entry : 0/0
   980 ;;		On exit  : 0/0
   981 ;;		Unchanged: 0/0
   982 ;; Data sizes:     COMMON   BANK0
   983 ;;      Params:         0       0
   984 ;;      Locals:         0       0
   985 ;;      Temps:          0       2
   986 ;;      Totals:         0       2
   987 ;;Total ram usage:        2 bytes
   988 ;; Hardware stack levels used: 1
   989 ;; Hardware stack levels required when called: 1
   990 ;; This function calls:
   991 ;;		Nothing
   992 ;; This function is called by:
   993 ;;		_Pin7ThermoControl
   994 ;; This function uses a non-reentrant model
   995 ;;
   996                           
   997  01CA                     _MeasureTemp:	
   998                           ;psect for function _MeasureTemp
   999                           
  1000  01CA                     l1010:	
  1001                           ;incstack = 0
  1002                           ; Regs used in _MeasureTemp: [wreg+status,2]
  1003                           
  1004                           
  1005                           ;ADC.c: 127:        ADCON0 = 0x00;
  1006  01CA  1283               	bcf	3,5	;RP0=0, select bank0
  1007  01CB  019F               	clrf	31	;volatile
  1008  01CC                     l1012:
  1009                           
  1010                           ;ADC.c: 128:        ADFM = 1;
  1011  01CC  179F               	bsf	31,7	;volatile
  1012  01CD                     l1014:
  1013                           
  1014                           ;ADC.c: 129:        ADON = 1;
  1015  01CD  141F               	bsf	31,0	;volatile
  1016  01CE                     l1016:
  1017                           
  1018                           ;ADC.c: 131:        _delay((unsigned long)((5)*(4000000/4000.0)));
  1019  01CE  3007               	movlw	7
  1020  01CF  00A3               	movwf	??_MeasureTemp+1
  1021  01D0  307D               	movlw	125
  1022  01D1  00A2               	movwf	??_MeasureTemp
  1023  01D2                     u457:
  1024  01D2  0BA2               	decfsz	??_MeasureTemp,f
  1025  01D3  29D2               	goto	u457
  1026  01D4  0BA3               	decfsz	??_MeasureTemp+1,f
  1027  01D5  29D2               	goto	u457
  1028  01D6                     l1018:
  1029                           
  1030                           ;ADC.c: 132:        GO = 1;
  1031  01D6  1283               	bcf	3,5	;RP0=0, select bank0
  1032  01D7  149F               	bsf	31,1	;volatile
  1033  01D8                     l109:	
  1034                           ;ADC.c: 133:        while(!ADIF);
  1035                           
  1036  01D8  1F0C               	btfss	12,6	;volatile
  1037  01D9  29DB               	goto	u81
  1038  01DA  29DC               	goto	u80
  1039  01DB                     u81:
  1040  01DB  29D8               	goto	l109
  1041  01DC                     u80:
  1042  01DC                     l1020:
  1043                           
  1044                           ;ADC.c: 134:        _delay((unsigned long)((5)*(4000000/4000.0)));
  1045  01DC  3007               	movlw	7
  1046  01DD  00A3               	movwf	??_MeasureTemp+1
  1047  01DE  307D               	movlw	125
  1048  01DF  00A2               	movwf	??_MeasureTemp
  1049  01E0                     u467:
  1050  01E0  0BA2               	decfsz	??_MeasureTemp,f
  1051  01E1  29E0               	goto	u467
  1052  01E2  0BA3               	decfsz	??_MeasureTemp+1,f
  1053  01E3  29E0               	goto	u467
  1054                           
  1055                           ;ADC.c: 136:        adcValue = (int) ((ADRESH << 8) + ADRESL);
  1056  01E4  1283               	bcf	3,5	;RP0=0, select bank0
  1057  01E5  081E               	movf	30,w	;volatile
  1058  01E6  00AF               	movwf	_adcValue+1
  1059  01E7  1683               	bsf	3,5	;RP0=1, select bank1
  1060  01E8  081E               	movf	30,w	;volatile
  1061  01E9  1283               	bcf	3,5	;RP0=0, select bank0
  1062  01EA  00AE               	movwf	_adcValue
  1063  01EB                     l112:
  1064  01EB  0008               	return
  1065  01EC                     __end_of_MeasureTemp:
  1066                           
  1067                           	psect	text5
  1068  00D8                     __ptext5:	
  1069 ;; *************** function _Pin6VoltageControl *****************
  1070 ;; Defined at:
  1071 ;;		line 53 in file "ADC.c"
  1072 ;; Parameters:    Size  Location     Type
  1073 ;;		None
  1074 ;; Auto vars:     Size  Location     Type
  1075 ;;		None
  1076 ;; Return value:  Size  Location     Type
  1077 ;;                  1    wreg      void 
  1078 ;; Registers used:
  1079 ;;		wreg, status,2, status,0, btemp+1, pclath, cstack
  1080 ;; Tracked objects:
  1081 ;;		On entry : 0/0
  1082 ;;		On exit  : 0/0
  1083 ;;		Unchanged: 0/0
  1084 ;; Data sizes:     COMMON   BANK0
  1085 ;;      Params:         0       0
  1086 ;;      Locals:         0       0
  1087 ;;      Temps:          0       0
  1088 ;;      Totals:         0       0
  1089 ;;Total ram usage:        0 bytes
  1090 ;; Hardware stack levels used: 1
  1091 ;; Hardware stack levels required when called: 3
  1092 ;; This function calls:
  1093 ;;		_MeasureVoltage
  1094 ;;		_TwoShortOneLong
  1095 ;;		_TwoShortTwoLong
  1096 ;; This function is called by:
  1097 ;;		_main
  1098 ;; This function uses a non-reentrant model
  1099 ;;
  1100                           
  1101  00D8                     _Pin6VoltageControl:	
  1102                           ;psect for function _Pin6VoltageControl
  1103                           
  1104  00D8                     l1068:	
  1105                           ;incstack = 0
  1106                           ; Regs used in _Pin6VoltageControl: [wreg+status,2+status,0+btemp+1+pclath+cstack]
  1107                           
  1108                           
  1109                           ;ADC.c: 55:    MeasureVoltage();
  1110  00D8  21A4               	fcall	_MeasureVoltage
  1111  00D9                     l1070:
  1112                           
  1113                           ;ADC.c: 57:      if ((adcValue > 190) && (adcValue < 280)){
  1114  00D9  1283               	bcf	3,5	;RP0=0, select bank0
  1115  00DA  082F               	movf	_adcValue+1,w
  1116  00DB  3A80               	xorlw	128
  1117  00DC  00DF               	movwf	btemp+1
  1118  00DD  3080               	movlw	128
  1119  00DE  025F               	subwf	btemp+1,w
  1120  00DF  1D03               	skipz
  1121  00E0  28E3               	goto	u95
  1122  00E1  30BF               	movlw	191
  1123  00E2  022E               	subwf	_adcValue,w
  1124  00E3                     u95:
  1125  00E3  1C03               	skipc
  1126  00E4  28E6               	goto	u91
  1127  00E5  28E7               	goto	u90
  1128  00E6                     u91:
  1129  00E6  2924               	goto	l1090
  1130  00E7                     u90:
  1131  00E7                     l1072:
  1132  00E7  1283               	bcf	3,5	;RP0=0, select bank0
  1133  00E8  082F               	movf	_adcValue+1,w
  1134  00E9  3A80               	xorlw	128
  1135  00EA  00DF               	movwf	btemp+1
  1136  00EB  3081               	movlw	129
  1137  00EC  025F               	subwf	btemp+1,w
  1138  00ED  1D03               	skipz
  1139  00EE  28F1               	goto	u105
  1140  00EF  3018               	movlw	24
  1141  00F0  022E               	subwf	_adcValue,w
  1142  00F1                     u105:
  1143  00F1  1803               	skipnc
  1144  00F2  28F4               	goto	u101
  1145  00F3  28F5               	goto	u100
  1146  00F4                     u101:
  1147  00F4  2924               	goto	l1090
  1148  00F5                     u100:
  1149  00F5                     l1074:
  1150                           
  1151                           ;ADC.c: 58:          if (errorFlag == 0){
  1152  00F5  1283               	bcf	3,5	;RP0=0, select bank0
  1153  00F6  0830               	movf	_errorFlag,w
  1154  00F7  1D03               	btfss	3,2
  1155  00F8  28FA               	goto	u111
  1156  00F9  28FB               	goto	u110
  1157  00FA                     u111:
  1158  00FA  28FD               	goto	l1078
  1159  00FB                     u110:
  1160  00FB                     l1076:
  1161                           
  1162                           ;ADC.c: 59:          GP5 = 0;
  1163  00FB  1285               	bcf	5,5	;volatile
  1164                           
  1165                           ;ADC.c: 60:          }
  1166  00FC  294B               	goto	l89
  1167  00FD                     l1078:
  1168  00FD  0330               	decf	_errorFlag,w
  1169  00FE  1D03               	btfss	3,2
  1170  00FF  2901               	goto	u121
  1171  0100  2902               	goto	u120
  1172  0101                     u121:
  1173  0101  294B               	goto	l89
  1174  0102                     u120:
  1175  0102  2904               	goto	l1084
  1176  0103                     l1082:
  1177                           
  1178                           ;ADC.c: 63:                MeasureVoltage();
  1179  0103  21A4               	fcall	_MeasureVoltage
  1180  0104                     l1084:
  1181                           
  1182                           ;ADC.c: 62:              while ((adcValue < 255) && (adcValue > 260)){
  1183  0104  1283               	bcf	3,5	;RP0=0, select bank0
  1184  0105  082F               	movf	_adcValue+1,w
  1185  0106  3A80               	xorlw	128
  1186  0107  00DF               	movwf	btemp+1
  1187  0108  3080               	movlw	128
  1188  0109  025F               	subwf	btemp+1,w
  1189  010A  1D03               	skipz
  1190  010B  290E               	goto	u135
  1191  010C  30FF               	movlw	255
  1192  010D  022E               	subwf	_adcValue,w
  1193  010E                     u135:
  1194  010E  1803               	skipnc
  1195  010F  2911               	goto	u131
  1196  0110  2912               	goto	u130
  1197  0111                     u131:
  1198  0111  2920               	goto	l84
  1199  0112                     u130:
  1200  0112                     l1086:
  1201  0112  1283               	bcf	3,5	;RP0=0, select bank0
  1202  0113  082F               	movf	_adcValue+1,w
  1203  0114  3A80               	xorlw	128
  1204  0115  00DF               	movwf	btemp+1
  1205  0116  3081               	movlw	129
  1206  0117  025F               	subwf	btemp+1,w
  1207  0118  1D03               	skipz
  1208  0119  291C               	goto	u145
  1209  011A  3005               	movlw	5
  1210  011B  022E               	subwf	_adcValue,w
  1211  011C                     u145:
  1212  011C  1803               	skipnc
  1213  011D  291F               	goto	u141
  1214  011E  2920               	goto	u140
  1215  011F                     u141:
  1216  011F  2903               	goto	l1082
  1217  0120                     u140:
  1218  0120                     l84:
  1219                           
  1220                           ;ADC.c: 65:          GP5 = 0;
  1221  0120  1283               	bcf	3,5	;RP0=0, select bank0
  1222  0121  1285               	bcf	5,5	;volatile
  1223  0122                     l1088:
  1224                           
  1225                           ;ADC.c: 66:       errorFlag = 0;
  1226  0122  01B0               	clrf	_errorFlag
  1227  0123  294B               	goto	l89
  1228  0124                     l1090:
  1229  0124  1283               	bcf	3,5	;RP0=0, select bank0
  1230  0125  082F               	movf	_adcValue+1,w
  1231  0126  3A80               	xorlw	128
  1232  0127  00DF               	movwf	btemp+1
  1233  0128  3080               	movlw	128
  1234  0129  025F               	subwf	btemp+1,w
  1235  012A  1D03               	skipz
  1236  012B  292E               	goto	u155
  1237  012C  30BF               	movlw	191
  1238  012D  022E               	subwf	_adcValue,w
  1239  012E                     u155:
  1240  012E  1803               	skipnc
  1241  012F  2931               	goto	u151
  1242  0130  2932               	goto	u150
  1243  0131                     u151:
  1244  0131  2938               	goto	l1096
  1245  0132                     u150:
  1246  0132                     l1092:
  1247                           
  1248                           ;ADC.c: 70:          GP5 = 1;
  1249  0132  1283               	bcf	3,5	;RP0=0, select bank0
  1250  0133  1685               	bsf	5,5	;volatile
  1251                           
  1252                           ;ADC.c: 71:          errorFlag = 1;
  1253  0134  01B0               	clrf	_errorFlag
  1254  0135  0AB0               	incf	_errorFlag,f
  1255  0136                     l1094:
  1256                           
  1257                           ;ADC.c: 72:          TwoShortOneLong();
  1258  0136  2265               	fcall	_TwoShortOneLong
  1259                           
  1260                           ;ADC.c: 73:         }
  1261  0137  294B               	goto	l89
  1262  0138                     l1096:
  1263  0138  1283               	bcf	3,5	;RP0=0, select bank0
  1264  0139  082F               	movf	_adcValue+1,w
  1265  013A  3A80               	xorlw	128
  1266  013B  00DF               	movwf	btemp+1
  1267  013C  3081               	movlw	129
  1268  013D  025F               	subwf	btemp+1,w
  1269  013E  1D03               	skipz
  1270  013F  2942               	goto	u165
  1271  0140  301D               	movlw	29
  1272  0141  022E               	subwf	_adcValue,w
  1273  0142                     u165:
  1274  0142  1C03               	skipc
  1275  0143  2945               	goto	u161
  1276  0144  2946               	goto	u160
  1277  0145                     u161:
  1278  0145  294B               	goto	l89
  1279  0146                     u160:
  1280  0146                     l1098:
  1281                           
  1282                           ;ADC.c: 75:          GP5 = 1;
  1283  0146  1283               	bcf	3,5	;RP0=0, select bank0
  1284  0147  1685               	bsf	5,5	;volatile
  1285                           
  1286                           ;ADC.c: 76:          errorFlag = 1;
  1287  0148  01B0               	clrf	_errorFlag
  1288  0149  0AB0               	incf	_errorFlag,f
  1289  014A                     l1100:
  1290                           
  1291                           ;ADC.c: 77:          TwoShortTwoLong();
  1292  014A  2240               	fcall	_TwoShortTwoLong
  1293  014B                     l89:
  1294  014B  0008               	return
  1295  014C                     __end_of_Pin6VoltageControl:
  1296                           
  1297                           	psect	text6
  1298  0240                     __ptext6:	
  1299 ;; *************** function _TwoShortTwoLong *****************
  1300 ;; Defined at:
  1301 ;;		line 27 in file "sounds.c"
  1302 ;; Parameters:    Size  Location     Type
  1303 ;;		None
  1304 ;; Auto vars:     Size  Location     Type
  1305 ;;		None
  1306 ;; Return value:  Size  Location     Type
  1307 ;;                  1    wreg      void 
  1308 ;; Registers used:
  1309 ;;		wreg, status,2, status,0, pclath, cstack
  1310 ;; Tracked objects:
  1311 ;;		On entry : 0/0
  1312 ;;		On exit  : 0/0
  1313 ;;		Unchanged: 0/0
  1314 ;; Data sizes:     COMMON   BANK0
  1315 ;;      Params:         0       0
  1316 ;;      Locals:         0       0
  1317 ;;      Temps:          0       3
  1318 ;;      Totals:         0       3
  1319 ;;Total ram usage:        3 bytes
  1320 ;; Hardware stack levels used: 1
  1321 ;; Hardware stack levels required when called: 2
  1322 ;; This function calls:
  1323 ;;		_LongSound
  1324 ;;		_ShortSound
  1325 ;; This function is called by:
  1326 ;;		_Pin6VoltageControl
  1327 ;; This function uses a non-reentrant model
  1328 ;;
  1329                           
  1330  0240                     _TwoShortTwoLong:	
  1331                           ;psect for function _TwoShortTwoLong
  1332                           
  1333  0240                     l1006:	
  1334                           ;incstack = 0
  1335                           ; Regs used in _TwoShortTwoLong: [wreg+status,2+status,0+pclath+cstack]
  1336                           
  1337                           
  1338                           ;sounds.c: 28:    ShortSound();
  1339  0240  21EC               	fcall	_ShortSound
  1340                           
  1341                           ;sounds.c: 29:    ShortSound();
  1342  0241  21EC               	fcall	_ShortSound
  1343                           
  1344                           ;sounds.c: 30:    LongSound();
  1345  0242  2202               	fcall	_LongSound
  1346                           
  1347                           ;sounds.c: 31:    LongSound();
  1348  0243  2202               	fcall	_LongSound
  1349  0244                     l1008:
  1350                           
  1351                           ;sounds.c: 32:    _delay((unsigned long)((700)*(4000000/4000.0)));
  1352  0244  3004               	movlw	4
  1353  0245  1283               	bcf	3,5	;RP0=0, select bank0
  1354  0246  00A6               	movwf	??_TwoShortTwoLong+2
  1355  0247  308E               	movlw	142
  1356  0248  00A5               	movwf	??_TwoShortTwoLong+1
  1357  0249  3012               	movlw	18
  1358  024A  00A4               	movwf	??_TwoShortTwoLong
  1359  024B                     u477:
  1360  024B  0BA4               	decfsz	??_TwoShortTwoLong,f
  1361  024C  2A4B               	goto	u477
  1362  024D  0BA5               	decfsz	??_TwoShortTwoLong+1,f
  1363  024E  2A4B               	goto	u477
  1364  024F  0BA6               	decfsz	??_TwoShortTwoLong+2,f
  1365  0250  2A4B               	goto	u477
  1366  0251  0000               	nop
  1367  0252                     l184:
  1368  0252  0008               	return
  1369  0253                     __end_of_TwoShortTwoLong:
  1370                           
  1371                           	psect	text7
  1372  0265                     __ptext7:	
  1373 ;; *************** function _TwoShortOneLong *****************
  1374 ;; Defined at:
  1375 ;;		line 20 in file "sounds.c"
  1376 ;; Parameters:    Size  Location     Type
  1377 ;;		None
  1378 ;; Auto vars:     Size  Location     Type
  1379 ;;		None
  1380 ;; Return value:  Size  Location     Type
  1381 ;;                  1    wreg      void 
  1382 ;; Registers used:
  1383 ;;		wreg, status,2, status,0, pclath, cstack
  1384 ;; Tracked objects:
  1385 ;;		On entry : 0/0
  1386 ;;		On exit  : 0/0
  1387 ;;		Unchanged: 0/0
  1388 ;; Data sizes:     COMMON   BANK0
  1389 ;;      Params:         0       0
  1390 ;;      Locals:         0       0
  1391 ;;      Temps:          0       3
  1392 ;;      Totals:         0       3
  1393 ;;Total ram usage:        3 bytes
  1394 ;; Hardware stack levels used: 1
  1395 ;; Hardware stack levels required when called: 2
  1396 ;; This function calls:
  1397 ;;		_LongSound
  1398 ;;		_ShortSound
  1399 ;; This function is called by:
  1400 ;;		_Pin6VoltageControl
  1401 ;; This function uses a non-reentrant model
  1402 ;;
  1403                           
  1404  0265                     _TwoShortOneLong:	
  1405                           ;psect for function _TwoShortOneLong
  1406                           
  1407  0265                     l1002:	
  1408                           ;incstack = 0
  1409                           ; Regs used in _TwoShortOneLong: [wreg+status,2+status,0+pclath+cstack]
  1410                           
  1411                           
  1412                           ;sounds.c: 21:    ShortSound();
  1413  0265  21EC               	fcall	_ShortSound
  1414                           
  1415                           ;sounds.c: 22:    ShortSound();
  1416  0266  21EC               	fcall	_ShortSound
  1417                           
  1418                           ;sounds.c: 23:    LongSound();
  1419  0267  2202               	fcall	_LongSound
  1420  0268                     l1004:
  1421                           
  1422                           ;sounds.c: 24:    _delay((unsigned long)((700)*(4000000/4000.0)));
  1423  0268  3004               	movlw	4
  1424  0269  1283               	bcf	3,5	;RP0=0, select bank0
  1425  026A  00A6               	movwf	??_TwoShortOneLong+2
  1426  026B  308E               	movlw	142
  1427  026C  00A5               	movwf	??_TwoShortOneLong+1
  1428  026D  3012               	movlw	18
  1429  026E  00A4               	movwf	??_TwoShortOneLong
  1430  026F                     u487:
  1431  026F  0BA4               	decfsz	??_TwoShortOneLong,f
  1432  0270  2A6F               	goto	u487
  1433  0271  0BA5               	decfsz	??_TwoShortOneLong+1,f
  1434  0272  2A6F               	goto	u487
  1435  0273  0BA6               	decfsz	??_TwoShortOneLong+2,f
  1436  0274  2A6F               	goto	u487
  1437  0275  0000               	nop
  1438  0276                     l181:
  1439  0276  0008               	return
  1440  0277                     __end_of_TwoShortOneLong:
  1441                           
  1442                           	psect	text8
  1443  01EC                     __ptext8:	
  1444 ;; *************** function _ShortSound *****************
  1445 ;; Defined at:
  1446 ;;		line 13 in file "sounds.c"
  1447 ;; Parameters:    Size  Location     Type
  1448 ;;		None
  1449 ;; Auto vars:     Size  Location     Type
  1450 ;;		None
  1451 ;; Return value:  Size  Location     Type
  1452 ;;                  1    wreg      void 
  1453 ;; Registers used:
  1454 ;;		wreg
  1455 ;; Tracked objects:
  1456 ;;		On entry : 0/0
  1457 ;;		On exit  : 0/0
  1458 ;;		Unchanged: 0/0
  1459 ;; Data sizes:     COMMON   BANK0
  1460 ;;      Params:         0       0
  1461 ;;      Locals:         0       0
  1462 ;;      Temps:          0       2
  1463 ;;      Totals:         0       2
  1464 ;;Total ram usage:        2 bytes
  1465 ;; Hardware stack levels used: 1
  1466 ;; Hardware stack levels required when called: 1
  1467 ;; This function calls:
  1468 ;;		Nothing
  1469 ;; This function is called by:
  1470 ;;		_TwoShortOneLong
  1471 ;;		_TwoShortTwoLong
  1472 ;;		_ThreeShort
  1473 ;;		_ThreeLongOneShort
  1474 ;; This function uses a non-reentrant model
  1475 ;;
  1476                           
  1477  01EC                     _ShortSound:	
  1478                           ;psect for function _ShortSound
  1479                           
  1480  01EC                     l978:	
  1481                           ;incstack = 0
  1482                           ; Regs used in _ShortSound: [wreg]
  1483                           
  1484                           
  1485                           ;sounds.c: 14:    GP2 = 1;
  1486  01EC  1283               	bcf	3,5	;RP0=0, select bank0
  1487  01ED  1505               	bsf	5,2	;volatile
  1488  01EE                     l980:
  1489                           
  1490                           ;sounds.c: 15:     _delay((unsigned long)((60)*(4000000/4000.0)));
  1491  01EE  304E               	movlw	78
  1492  01EF  00A3               	movwf	??_ShortSound+1
  1493  01F0  30EB               	movlw	235
  1494  01F1  00A2               	movwf	??_ShortSound
  1495  01F2                     u497:
  1496  01F2  0BA2               	decfsz	??_ShortSound,f
  1497  01F3  29F2               	goto	u497
  1498  01F4  0BA3               	decfsz	??_ShortSound+1,f
  1499  01F5  29F2               	goto	u497
  1500  01F6                     l982:
  1501                           
  1502                           ;sounds.c: 16:    GP2 = 0;
  1503  01F6  1283               	bcf	3,5	;RP0=0, select bank0
  1504  01F7  1105               	bcf	5,2	;volatile
  1505                           
  1506                           ;sounds.c: 17:     _delay((unsigned long)((80)*(4000000/4000.0)));
  1507  01F8  3068               	movlw	104
  1508  01F9  00A3               	movwf	??_ShortSound+1
  1509  01FA  30E4               	movlw	228
  1510  01FB  00A2               	movwf	??_ShortSound
  1511  01FC                     u507:
  1512  01FC  0BA2               	decfsz	??_ShortSound,f
  1513  01FD  29FC               	goto	u507
  1514  01FE  0BA3               	decfsz	??_ShortSound+1,f
  1515  01FF  29FC               	goto	u507
  1516  0200  0000               	nop
  1517  0201                     l178:
  1518  0201  0008               	return
  1519  0202                     __end_of_ShortSound:
  1520                           
  1521                           	psect	text9
  1522  01A4                     __ptext9:	
  1523 ;; *************** function _MeasureVoltage *****************
  1524 ;; Defined at:
  1525 ;;		line 142 in file "ADC.c"
  1526 ;; Parameters:    Size  Location     Type
  1527 ;;		None
  1528 ;; Auto vars:     Size  Location     Type
  1529 ;;		None
  1530 ;; Return value:  Size  Location     Type
  1531 ;;                  2   38[None  ] int 
  1532 ;; Registers used:
  1533 ;;		wreg, status,2
  1534 ;; Tracked objects:
  1535 ;;		On entry : 0/0
  1536 ;;		On exit  : 0/0
  1537 ;;		Unchanged: 0/0
  1538 ;; Data sizes:     COMMON   BANK0
  1539 ;;      Params:         0       0
  1540 ;;      Locals:         0       0
  1541 ;;      Temps:          0       2
  1542 ;;      Totals:         0       2
  1543 ;;Total ram usage:        2 bytes
  1544 ;; Hardware stack levels used: 1
  1545 ;; Hardware stack levels required when called: 1
  1546 ;; This function calls:
  1547 ;;		Nothing
  1548 ;; This function is called by:
  1549 ;;		_Pin6VoltageControl
  1550 ;; This function uses a non-reentrant model
  1551 ;;
  1552                           
  1553  01A4                     _MeasureVoltage:	
  1554                           ;psect for function _MeasureVoltage
  1555                           
  1556  01A4                     l984:	
  1557                           ;incstack = 0
  1558                           ; Regs used in _MeasureVoltage: [wreg+status,2]
  1559                           
  1560                           
  1561                           ;ADC.c: 144:     ADCON0 = 0x00;
  1562  01A4  1283               	bcf	3,5	;RP0=0, select bank0
  1563  01A5  019F               	clrf	31	;volatile
  1564  01A6                     l986:
  1565                           
  1566                           ;ADC.c: 145:     ADFM = 1;
  1567  01A6  179F               	bsf	31,7	;volatile
  1568  01A7                     l988:
  1569                           
  1570                           ;ADC.c: 146:     CHS1 = 0;
  1571  01A7  119F               	bcf	31,3	;volatile
  1572  01A8                     l990:
  1573                           
  1574                           ;ADC.c: 147:     CHS0 = 1;
  1575  01A8  151F               	bsf	31,2	;volatile
  1576  01A9                     l992:
  1577                           
  1578                           ;ADC.c: 148:     ADON = 1;
  1579  01A9  141F               	bsf	31,0	;volatile
  1580  01AA                     l994:
  1581                           
  1582                           ;ADC.c: 150:      _delay((unsigned long)((10)*(4000000/4000.0)));
  1583  01AA  300D               	movlw	13
  1584  01AB  00A3               	movwf	??_MeasureVoltage+1
  1585  01AC  30FB               	movlw	251
  1586  01AD  00A2               	movwf	??_MeasureVoltage
  1587  01AE                     u517:
  1588  01AE  0BA2               	decfsz	??_MeasureVoltage,f
  1589  01AF  29AE               	goto	u517
  1590  01B0  0BA3               	decfsz	??_MeasureVoltage+1,f
  1591  01B1  29AE               	goto	u517
  1592  01B2  29B3               	nop2
  1593  01B3                     l996:
  1594                           
  1595                           ;ADC.c: 152:        GO = 1;
  1596  01B3  1283               	bcf	3,5	;RP0=0, select bank0
  1597  01B4  149F               	bsf	31,1	;volatile
  1598  01B5                     l115:	
  1599                           ;ADC.c: 153:        while(!ADIF);
  1600                           
  1601  01B5  1F0C               	btfss	12,6	;volatile
  1602  01B6  29B8               	goto	u71
  1603  01B7  29B9               	goto	u70
  1604  01B8                     u71:
  1605  01B8  29B5               	goto	l115
  1606  01B9                     u70:
  1607  01B9                     l998:
  1608                           
  1609                           ;ADC.c: 154:      _delay((unsigned long)((10)*(4000000/4000.0)));
  1610  01B9  300D               	movlw	13
  1611  01BA  00A3               	movwf	??_MeasureVoltage+1
  1612  01BB  30FB               	movlw	251
  1613  01BC  00A2               	movwf	??_MeasureVoltage
  1614  01BD                     u527:
  1615  01BD  0BA2               	decfsz	??_MeasureVoltage,f
  1616  01BE  29BD               	goto	u527
  1617  01BF  0BA3               	decfsz	??_MeasureVoltage+1,f
  1618  01C0  29BD               	goto	u527
  1619  01C1  29C2               	nop2
  1620                           
  1621                           ;ADC.c: 156:        adcValue = (int) ((ADRESH<<8)+ADRESL);
  1622  01C2  1283               	bcf	3,5	;RP0=0, select bank0
  1623  01C3  081E               	movf	30,w	;volatile
  1624  01C4  00AF               	movwf	_adcValue+1
  1625  01C5  1683               	bsf	3,5	;RP0=1, select bank1
  1626  01C6  081E               	movf	30,w	;volatile
  1627  01C7  1283               	bcf	3,5	;RP0=0, select bank0
  1628  01C8  00AE               	movwf	_adcValue
  1629  01C9                     l118:
  1630  01C9  0008               	return
  1631  01CA                     __end_of_MeasureVoltage:
  1632                           
  1633                           	psect	text10
  1634  014C                     __ptext10:	
  1635 ;; *************** function _Init_uC *****************
  1636 ;; Defined at:
  1637 ;;		line 14 in file "ADC.c"
  1638 ;; Parameters:    Size  Location     Type
  1639 ;;		None
  1640 ;; Auto vars:     Size  Location     Type
  1641 ;;		None
  1642 ;; Return value:  Size  Location     Type
  1643 ;;                  1    wreg      void 
  1644 ;; Registers used:
  1645 ;;		wreg, status,2, status,0, pclath, cstack
  1646 ;; Tracked objects:
  1647 ;;		On entry : 0/0
  1648 ;;		On exit  : 0/0
  1649 ;;		Unchanged: 0/0
  1650 ;; Data sizes:     COMMON   BANK0
  1651 ;;      Params:         0       0
  1652 ;;      Locals:         0       0
  1653 ;;      Temps:          0       3
  1654 ;;      Totals:         0       3
  1655 ;;Total ram usage:        3 bytes
  1656 ;; Hardware stack levels used: 1
  1657 ;; Hardware stack levels required when called: 2
  1658 ;; This function calls:
  1659 ;;		_LongSound
  1660 ;; This function is called by:
  1661 ;;		_main
  1662 ;; This function uses a non-reentrant model
  1663 ;;
  1664                           
  1665  014C                     _Init_uC:	
  1666                           ;psect for function _Init_uC
  1667                           
  1668  014C                     l1032:	
  1669                           ;incstack = 0
  1670                           ; Regs used in _Init_uC: [wreg+status,2+status,0+pclath+cstack]
  1671                           
  1672                           
  1673                           ;ADC.c: 15:  CMCON = 0x07;
  1674  014C  3007               	movlw	7
  1675  014D  1283               	bcf	3,5	;RP0=0, select bank0
  1676  014E  0099               	movwf	25	;volatile
  1677  014F                     l1034:
  1678                           
  1679                           ;ADC.c: 16:     VRCON = 0x00;
  1680  014F  1683               	bsf	3,5	;RP0=1, select bank1
  1681  0150  0199               	clrf	25	;volatile
  1682  0151                     l1036:
  1683                           
  1684                           ;ADC.c: 19:     TRISIO = 0;
  1685  0151  0185               	clrf	5	;volatile
  1686  0152                     l1038:
  1687                           
  1688                           ;ADC.c: 20:     GPIO = 0;
  1689  0152  1283               	bcf	3,5	;RP0=0, select bank0
  1690  0153  0185               	clrf	5	;volatile
  1691  0154                     l1040:
  1692                           
  1693                           ;ADC.c: 23:     TRISIO2 = 0;
  1694  0154  1683               	bsf	3,5	;RP0=1, select bank1
  1695  0155  1105               	bcf	5,2	;volatile
  1696  0156                     l1042:
  1697                           
  1698                           ;ADC.c: 24:     GP2 = 0;
  1699  0156  1283               	bcf	3,5	;RP0=0, select bank0
  1700  0157  1105               	bcf	5,2	;volatile
  1701  0158                     l1044:
  1702                           
  1703                           ;ADC.c: 27:     TRISIO5 = 0;
  1704  0158  1683               	bsf	3,5	;RP0=1, select bank1
  1705  0159  1285               	bcf	5,5	;volatile
  1706  015A                     l1046:
  1707                           
  1708                           ;ADC.c: 28:     GP5 = 1;
  1709  015A  1283               	bcf	3,5	;RP0=0, select bank0
  1710  015B  1685               	bsf	5,5	;volatile
  1711  015C                     l1048:
  1712                           
  1713                           ;ADC.c: 31:     TRISIO4 = 0;
  1714  015C  1683               	bsf	3,5	;RP0=1, select bank1
  1715  015D  1205               	bcf	5,4	;volatile
  1716  015E                     l1050:
  1717                           
  1718                           ;ADC.c: 32:     GP4 = 0;
  1719  015E  1283               	bcf	3,5	;RP0=0, select bank0
  1720  015F  1205               	bcf	5,4	;volatile
  1721  0160                     l1052:
  1722                           
  1723                           ;ADC.c: 36:     ADON = 1;
  1724  0160  141F               	bsf	31,0	;volatile
  1725  0161                     l1054:
  1726                           
  1727                           ;ADC.c: 38:     VCFG = 1;
  1728  0161  171F               	bsf	31,6	;volatile
  1729  0162                     l1056:
  1730                           
  1731                           ;ADC.c: 39:     TRISIO0 = 1;
  1732  0162  1683               	bsf	3,5	;RP0=1, select bank1
  1733  0163  1405               	bsf	5,0	;volatile
  1734  0164                     l1058:
  1735                           
  1736                           ;ADC.c: 40:     TRISIO1 = 1;
  1737  0164  1485               	bsf	5,1	;volatile
  1738  0165                     l1060:
  1739                           
  1740                           ;ADC.c: 42:     ANSEL = 0b00110011;
  1741  0165  3033               	movlw	51
  1742  0166  009F               	movwf	31	;volatile
  1743  0167                     l1062:
  1744                           
  1745                           ;ADC.c: 45:     GIE = 1;
  1746  0167  178B               	bsf	11,7	;volatile
  1747  0168                     l1064:
  1748                           
  1749                           ;ADC.c: 47:     LongSound();
  1750  0168  2202               	fcall	_LongSound
  1751  0169                     l1066:
  1752                           
  1753                           ;ADC.c: 48:     _delay((unsigned long)((700)*(4000000/4000.0)));
  1754  0169  3004               	movlw	4
  1755  016A  1283               	bcf	3,5	;RP0=0, select bank0
  1756  016B  00A6               	movwf	??_Init_uC+2
  1757  016C  308E               	movlw	142
  1758  016D  00A5               	movwf	??_Init_uC+1
  1759  016E  3012               	movlw	18
  1760  016F  00A4               	movwf	??_Init_uC
  1761  0170                     u537:
  1762  0170  0BA4               	decfsz	??_Init_uC,f
  1763  0171  2970               	goto	u537
  1764  0172  0BA5               	decfsz	??_Init_uC+1,f
  1765  0173  2970               	goto	u537
  1766  0174  0BA6               	decfsz	??_Init_uC+2,f
  1767  0175  2970               	goto	u537
  1768  0176  0000               	nop
  1769  0177                     l73:
  1770  0177  0008               	return
  1771  0178                     __end_of_Init_uC:
  1772                           
  1773                           	psect	text11
  1774  0202                     __ptext11:	
  1775 ;; *************** function _LongSound *****************
  1776 ;; Defined at:
  1777 ;;		line 6 in file "sounds.c"
  1778 ;; Parameters:    Size  Location     Type
  1779 ;;		None
  1780 ;; Auto vars:     Size  Location     Type
  1781 ;;		None
  1782 ;; Return value:  Size  Location     Type
  1783 ;;                  1    wreg      void 
  1784 ;; Registers used:
  1785 ;;		wreg
  1786 ;; Tracked objects:
  1787 ;;		On entry : 0/0
  1788 ;;		On exit  : 0/0
  1789 ;;		Unchanged: 0/0
  1790 ;; Data sizes:     COMMON   BANK0
  1791 ;;      Params:         0       0
  1792 ;;      Locals:         0       0
  1793 ;;      Temps:          0       2
  1794 ;;      Totals:         0       2
  1795 ;;Total ram usage:        2 bytes
  1796 ;; Hardware stack levels used: 1
  1797 ;; Hardware stack levels required when called: 1
  1798 ;; This function calls:
  1799 ;;		Nothing
  1800 ;; This function is called by:
  1801 ;;		_Init_uC
  1802 ;;		_TwoShortOneLong
  1803 ;;		_TwoShortTwoLong
  1804 ;;		_ThreeLongOneShort
  1805 ;; This function uses a non-reentrant model
  1806 ;;
  1807                           
  1808  0202                     _LongSound:	
  1809                           ;psect for function _LongSound
  1810                           
  1811  0202                     l972:	
  1812                           ;incstack = 0
  1813                           ; Regs used in _LongSound: [wreg]
  1814                           
  1815                           
  1816                           ;sounds.c: 7:    GP2 = 1;
  1817  0202  1283               	bcf	3,5	;RP0=0, select bank0
  1818  0203  1505               	bsf	5,2	;volatile
  1819  0204                     l974:
  1820                           
  1821                           ;sounds.c: 8:     _delay((unsigned long)((150)*(4000000/4000.0)));
  1822  0204  30C3               	movlw	195
  1823  0205  00A3               	movwf	??_LongSound+1
  1824  0206  30CD               	movlw	205
  1825  0207  00A2               	movwf	??_LongSound
  1826  0208                     u547:
  1827  0208  0BA2               	decfsz	??_LongSound,f
  1828  0209  2A08               	goto	u547
  1829  020A  0BA3               	decfsz	??_LongSound+1,f
  1830  020B  2A08               	goto	u547
  1831  020C                     l976:
  1832                           
  1833                           ;sounds.c: 9:    GP2 = 0;
  1834  020C  1283               	bcf	3,5	;RP0=0, select bank0
  1835  020D  1105               	bcf	5,2	;volatile
  1836                           
  1837                           ;sounds.c: 10:     _delay((unsigned long)((80)*(4000000/4000.0)));
  1838  020E  3068               	movlw	104
  1839  020F  00A3               	movwf	??_LongSound+1
  1840  0210  30E4               	movlw	228
  1841  0211  00A2               	movwf	??_LongSound
  1842  0212                     u557:
  1843  0212  0BA2               	decfsz	??_LongSound,f
  1844  0213  2A12               	goto	u557
  1845  0214  0BA3               	decfsz	??_LongSound+1,f
  1846  0215  2A12               	goto	u557
  1847  0216  0000               	nop
  1848  0217                     l175:
  1849  0217  0008               	return
  1850  0218                     __end_of_LongSound:
  1851                           
  1852                           	psect	text12
  1853  0277                     __ptext12:	
  1854 ;; *************** function _InitTimer0 *****************
  1855 ;; Defined at:
  1856 ;;		line 4 in file "timer0.c"
  1857 ;; Parameters:    Size  Location     Type
  1858 ;;		None
  1859 ;; Auto vars:     Size  Location     Type
  1860 ;;		None
  1861 ;; Return value:  Size  Location     Type
  1862 ;;                  1    wreg      void 
  1863 ;; Registers used:
  1864 ;;		wreg, status,2, status,0
  1865 ;; Tracked objects:
  1866 ;;		On entry : 0/0
  1867 ;;		On exit  : 0/0
  1868 ;;		Unchanged: 0/0
  1869 ;; Data sizes:     COMMON   BANK0
  1870 ;;      Params:         0       0
  1871 ;;      Locals:         0       0
  1872 ;;      Temps:          0       1
  1873 ;;      Totals:         0       1
  1874 ;;Total ram usage:        1 bytes
  1875 ;; Hardware stack levels used: 1
  1876 ;; Hardware stack levels required when called: 1
  1877 ;; This function calls:
  1878 ;;		Nothing
  1879 ;; This function is called by:
  1880 ;;		_main
  1881 ;; This function uses a non-reentrant model
  1882 ;;
  1883                           
  1884  0277                     _InitTimer0:	
  1885                           ;psect for function _InitTimer0
  1886                           
  1887  0277                     l1150:	
  1888                           ;incstack = 0
  1889                           ; Regs used in _InitTimer0: [wreg+status,2+status,0]
  1890                           
  1891                           
  1892                           ;timer0.c: 7:  OPTION_REG &= 0xC0;
  1893  0277  30C0               	movlw	192
  1894  0278  1283               	bcf	3,5	;RP0=0, select bank0
  1895  0279  00A2               	movwf	??_InitTimer0
  1896  027A  0822               	movf	??_InitTimer0,w
  1897  027B  1683               	bsf	3,5	;RP0=1, select bank1
  1898  027C  0581               	andwf	1,f	;volatile
  1899  027D                     l1152:
  1900                           
  1901                           ;timer0.c: 8:  T0IE = 1;
  1902  027D  168B               	bsf	11,5	;volatile
  1903  027E                     l144:
  1904  027E  0008               	return
  1905  027F                     __end_of_InitTimer0:
  1906                           
  1907                           	psect	text13
  1908  0178                     __ptext13:	
  1909 ;; *************** function _ISR *****************
  1910 ;; Defined at:
  1911 ;;		line 7 in file "interrupt.c"
  1912 ;; Parameters:    Size  Location     Type
  1913 ;;		None
  1914 ;; Auto vars:     Size  Location     Type
  1915 ;;		None
  1916 ;; Return value:  Size  Location     Type
  1917 ;;                  1    wreg      void 
  1918 ;; Registers used:
  1919 ;;		wreg, status,2
  1920 ;; Tracked objects:
  1921 ;;		On entry : 0/0
  1922 ;;		On exit  : 0/0
  1923 ;;		Unchanged: 0/0
  1924 ;; Data sizes:     COMMON   BANK0
  1925 ;;      Params:         0       0
  1926 ;;      Locals:         0       0
  1927 ;;      Temps:          0       2
  1928 ;;      Totals:         0       2
  1929 ;;Total ram usage:        2 bytes
  1930 ;; Hardware stack levels used: 1
  1931 ;; This function calls:
  1932 ;;		Nothing
  1933 ;; This function is called by:
  1934 ;;		Interrupt level 1
  1935 ;; This function uses a non-reentrant model
  1936 ;;
  1937                           
  1938  0178                     _ISR:	
  1939                           ;psect for function _ISR
  1940                           
  1941  0178                     i1l1154:
  1942                           
  1943                           ;interrupt.c: 9:       TMR0 = 200;
  1944  0178  30C8               	movlw	200
  1945  0179  0081               	movwf	1	;volatile
  1946                           
  1947                           ;interrupt.c: 10:       pulsePerTakt++;
  1948  017A  3001               	movlw	1
  1949  017B  07AA               	addwf	_pulsePerTakt,f
  1950  017C  1803               	skipnc
  1951  017D  0AAB               	incf	_pulsePerTakt+1,f
  1952  017E  3000               	movlw	0
  1953  017F  07AB               	addwf	_pulsePerTakt+1,f
  1954  0180                     i1l1156:
  1955                           
  1956                           ;interrupt.c: 11:    if(T0IF)
  1957  0180  1D0B               	btfss	11,2	;volatile
  1958  0181  2983               	goto	u28_21
  1959  0182  2984               	goto	u28_20
  1960  0183                     u28_21:
  1961  0183  2992               	goto	i1l1162
  1962  0184                     u28_20:
  1963  0184                     i1l1158:
  1964                           
  1965                           ;interrupt.c: 12:     {;interrupt.c: 13:         if (pulsePerTakt < pwmValue)
  1966  0184  082D               	movf	_pwmValue+1,w
  1967  0185  022B               	subwf	_pulsePerTakt+1,w
  1968  0186  1D03               	skipz
  1969  0187  298A               	goto	u29_25
  1970  0188  082C               	movf	_pwmValue,w
  1971  0189  022A               	subwf	_pulsePerTakt,w
  1972  018A                     u29_25:
  1973  018A  1803               	skipnc
  1974  018B  298D               	goto	u29_21
  1975  018C  298E               	goto	u29_20
  1976  018D                     u29_21:
  1977  018D  2990               	goto	i1l134
  1978  018E                     u29_20:
  1979  018E                     i1l1160:
  1980                           
  1981                           ;interrupt.c: 14:          {GP4 = 1;}
  1982  018E  1605               	bsf	5,4	;volatile
  1983  018F  2991               	goto	i1l135
  1984  0190                     i1l134:	
  1985                           ;interrupt.c: 15:         else
  1986                           
  1987                           
  1988                           ;interrupt.c: 16:    {GP4 = 0;}
  1989  0190  1205               	bcf	5,4	;volatile
  1990  0191                     i1l135:
  1991                           
  1992                           ;interrupt.c: 17:   T0IF = 0;
  1993  0191  110B               	bcf	11,2	;volatile
  1994  0192                     i1l1162:
  1995                           
  1996                           ;interrupt.c: 19:       if (pulsePerTakt > 100)
  1997  0192  3000               	movlw	0
  1998  0193  022B               	subwf	_pulsePerTakt+1,w
  1999  0194  3065               	movlw	101
  2000  0195  1903               	skipnz
  2001  0196  022A               	subwf	_pulsePerTakt,w
  2002  0197  1C03               	skipc
  2003  0198  299A               	goto	u30_21
  2004  0199  299B               	goto	u30_20
  2005  019A                     u30_21:
  2006  019A  299D               	goto	i1l137
  2007  019B                     u30_20:
  2008  019B                     i1l1164:
  2009                           
  2010                           ;interrupt.c: 20:        {;interrupt.c: 21:          pulsePerTakt = 0;
  2011  019B  01AA               	clrf	_pulsePerTakt
  2012  019C  01AB               	clrf	_pulsePerTakt+1
  2013  019D                     i1l137:
  2014  019D  0821               	movf	??_ISR+1,w
  2015  019E  008A               	movwf	10
  2016  019F  0E20               	swapf	??_ISR,w
  2017  01A0  0083               	movwf	3
  2018  01A1  0EDE               	swapf	btemp,f
  2019  01A2  0E5E               	swapf	btemp,w
  2020  01A3  0009               	retfie
  2021  01A4                     __end_of_ISR:
  2022  005E                     btemp	set	94	;btemp
  2023  005E                     wtemp0	set	94
  2024                           
  2025                           	psect	intentry
  2026  0004                     __pintentry:	
  2027                           ;incstack = 0
  2028                           ; Regs used in _ISR: [wreg+status,2]
  2029                           
  2030  0004                     interrupt_function:
  2031  005E                     saved_w	set	btemp
  2032  0004  00DE               	movwf	btemp
  2033  0005  0E03               	swapf	3,w
  2034  0006  1283               	bcf	3,5	;RP0=0, select bank0
  2035  0007  00A0               	movwf	??_ISR
  2036  0008  080A               	movf	10,w
  2037  0009  00A1               	movwf	??_ISR+1
  2038  000A  2978               	ljmp	_ISR
  2039                           
  2040                           	psect	config
  2041                           
  2042                           ;Config register CONFIG @ 0x2007
  2043                           ;	Oscillator Selection bits
  2044                           ;	FOSC = INTRCIO, INTOSC oscillator: I/O function on GP4/OSC2/CLKOUT pin, I/O function o
      +                          n GP5/OSC1/CLKIN
  2045                           ;	Watchdog Timer Enable bit
  2046                           ;	WDTE = OFF, WDT disabled
  2047                           ;	Power-Up Timer Enable bit
  2048                           ;	PWRTE = OFF, PWRT disabled
  2049                           ;	GP3/MCLR pin function select
  2050                           ;	MCLRE = ON, GP3/MCLR pin function is MCLR
  2051                           ;	Brown-out Detect Enable bit
  2052                           ;	BOREN = ON, BOD enabled
  2053                           ;	Code Protection bit
  2054                           ;	CP = OFF, Program Memory code protection is disabled
  2055                           ;	Data Code Protection bit
  2056                           ;	CPD = OFF, Data memory code protection is disabled
  2057  2007                     	org	8199
  2058  2007  31F4               	dw	12788

Data Sizes:
    Strings     0
    Constant    0
    Data        0
    BSS         7
    Persistent  0
    Stack       0

Auto Spaces:
    Space          Size  Autos    Used
    COMMON            0      0       0
    BANK0            62     10      17

Pointer List with Targets:

    None.

Critical Paths under _main in COMMON

    None.

Critical Paths under _ISR in COMMON

    None.

Critical Paths under _main in BANK0

    _main->_Init_uC
    _Pin7ThermoControl->_ThreeLongOneShort
    _Pin7ThermoControl->_ThreeShort
    _ThreeShort->_ShortSound
    _ThreeLongOneShort->_LongSound
    _ThreeLongOneShort->_ShortSound
    _Pin6VoltageControl->_TwoShortOneLong
    _Pin6VoltageControl->_TwoShortTwoLong
    _TwoShortTwoLong->_LongSound
    _TwoShortTwoLong->_ShortSound
    _TwoShortOneLong->_LongSound
    _TwoShortOneLong->_ShortSound
    _Init_uC->_LongSound

Critical Paths under _ISR in BANK0

    None.

Call Graph Tables:

 ---------------------------------------------------------------------------------
 (Depth) Function   	        Calls       Base Space   Used Autos Params    Refs
 ---------------------------------------------------------------------------------
 (0) _main                                                 3     3      0       0
                                              7 BANK0      3     3      0
                         _InitTimer0
                            _Init_uC
                 _Pin6VoltageControl
                  _Pin7ThermoControl
 ---------------------------------------------------------------------------------
 (1) _Pin7ThermoControl                                    0     0      0       0
                        _MeasureTemp
                  _ThreeLongOneShort
                         _ThreeShort
 ---------------------------------------------------------------------------------
 (2) _ThreeShort                                           3     3      0       0
                                              4 BANK0      3     3      0
                         _ShortSound
 ---------------------------------------------------------------------------------
 (2) _ThreeLongOneShort                                    3     3      0       0
                                              4 BANK0      3     3      0
                          _LongSound
                         _ShortSound
 ---------------------------------------------------------------------------------
 (2) _MeasureTemp                                          2     2      0       0
                                              2 BANK0      2     2      0
 ---------------------------------------------------------------------------------
 (1) _Pin6VoltageControl                                   0     0      0       0
                     _MeasureVoltage
                    _TwoShortOneLong
                    _TwoShortTwoLong
 ---------------------------------------------------------------------------------
 (2) _TwoShortTwoLong                                      3     3      0       0
                                              4 BANK0      3     3      0
                          _LongSound
                         _ShortSound
 ---------------------------------------------------------------------------------
 (2) _TwoShortOneLong                                      3     3      0       0
                                              4 BANK0      3     3      0
                          _LongSound
                         _ShortSound
 ---------------------------------------------------------------------------------
 (3) _ShortSound                                           2     2      0       0
                                              2 BANK0      2     2      0
 ---------------------------------------------------------------------------------
 (2) _MeasureVoltage                                       2     2      0       0
                                              2 BANK0      2     2      0
 ---------------------------------------------------------------------------------
 (1) _Init_uC                                              3     3      0       0
                                              4 BANK0      3     3      0
                          _LongSound
 ---------------------------------------------------------------------------------
 (3) _LongSound                                            2     2      0       0
                                              2 BANK0      2     2      0
 ---------------------------------------------------------------------------------
 (1) _InitTimer0                                           1     1      0       0
                                              2 BANK0      1     1      0
 ---------------------------------------------------------------------------------
 Estimated maximum stack depth 3
 ---------------------------------------------------------------------------------
 (Depth) Function   	        Calls       Base Space   Used Autos Params    Refs
 ---------------------------------------------------------------------------------
 (4) _ISR                                                  2     2      0       0
                                              0 BANK0      2     2      0
 ---------------------------------------------------------------------------------
 Estimated maximum stack depth 4
 ---------------------------------------------------------------------------------

 Call Graph Graphs:

 _main (ROOT)
   _InitTimer0
   _Init_uC
     _LongSound
   _Pin6VoltageControl
     _MeasureVoltage
     _TwoShortOneLong
       _LongSound
       _ShortSound
     _TwoShortTwoLong
       _LongSound
       _ShortSound
   _Pin7ThermoControl
     _MeasureTemp
     _ThreeLongOneShort
       _LongSound
       _ShortSound
     _ThreeShort
       _ShortSound

 _ISR (ROOT)

 Address spaces:
Name               Size   Autos  Total    Cost      Usage
BITCOMMON            0      0       0       0        0.0%
EEDATA              80      0       0       0        0.0%
NULL                 0      0       0       0        0.0%
CODE                 0      0       0       0        0.0%
BITSFR0              0      0       0       1        0.0%
SFR0                 0      0       0       1        0.0%
COMMON               0      0       0       1        0.0%
BITSFR1              0      0       0       2        0.0%
SFR1                 0      0       0       2        0.0%
STACK                0      0       0       2        0.0%
BITBANK0            3E      0       0       3        0.0%
BANK0               3E      A      11       4       27.4%
ABS                  0      0      11       5        0.0%
DATA                 0      0      11       6        0.0%


Microchip Technology PIC Macro Assembler V2.36 build 20220127204148 
Symbol Table                                                                                   Sun Aug 27 18:25:56 2023

                        l73 0177                          l84 0120                          l89 014B  
                        _GO 00F9                          u70 01B9                          u71 01B8  
                        u80 01DC                          u81 01DB                          u90 00E7  
                        u91 00E6                _pulsePerTakt 002A                          u95 00E3  
                       l102 00C1                         l112 01EB                         l106 00D7  
                       l115 01B5                         l109 01D8                         l118 01C9  
                       l144 027E                         l181 0276                         l190 023F  
                       l175 0217                         l184 0252                         l178 0201  
                       l187 0264                         l972 0202                         l980 01EE  
                       l974 0204                         l990 01A8                         l982 01F6  
                       _GP2 002A                         l976 020C                         l992 01A9  
                       l984 01A4                         _GP4 002C                         _GP5 002D  
                       l994 01AA                         l986 01A6                         l978 01EC  
                       _GIE 005F                         l996 01B3                         l988 01A7  
                       l998 01B9                         u100 00F5                         u101 00F4  
                       u110 00FB                         u111 00FA                         u120 0102  
                       u121 0101                         u105 00F1                         u130 0112  
                       u131 0111                         u140 0120                         u141 011F  
                       u150 0132                         u310 0025                         u151 0131  
                       u135 010E                         u311 0024                         u160 0146  
                       u400 00BA                         u320 0039                         u161 0145  
                       u145 011C                         u401 00B9                         u321 0038  
                       u410 00D7                         u330 0048                         u155 012E  
                       u411 00D6                         u331 0047                         u315 0021  
                       u340 0056                         u165 0142                         u405 00B6  
                       u341 0055                         u325 0035                         u350 0068  
                       u415 00D3                         u351 0067                         u335 0044  
                       u360 0076                         u361 0075                         u345 0052  
                       u370 008A                         u507 01FC                         u371 0089  
                       u355 0064                         u427 021F                         u380 0098  
                       _ISR 0178                         u517 01AE                         u437 025D  
                       u381 0097                         u365 0072                         u390 00AC  
                       u527 01BD                         u447 0238                         u391 00AB  
                       u375 0086                         u537 0170                         u457 01D2  
                       u385 0094                         u547 0208                         u467 01E0  
                       u395 00A8                         u557 0212                         u477 024B  
                       u487 026F                         u497 01F2           ??_TwoShortOneLong 0024  
                      ?_ISR 0020           ??_TwoShortTwoLong 0024                        l1002 0265  
                      l1010 01CA                        l1004 0268                        l1100 014A  
                      l1020 01DC                        l1012 01CC                        l1006 0240  
                      l1014 01CD                        l1030 0256                        l1040 0154  
                      l1032 014C                        l1008 0244                        l1016 01CE  
                      l1024 022D                        l1200 0068                        l1050 015E  
                      l1042 0156                        l1034 014F                        l1018 01D6  
                      l1026 0231                        l1210 009E                        l1202 0076  
                      l1060 0165                        l1052 0160                        l1044 0158  
                      l1036 0151                        l1028 0253                        l1220 00C7  
                      l1212 00AC                        l1204 007C                        l1150 0277  
                      l1062 0167                        l1054 0161                        l1046 015A  
                      l1038 0152                        l1070 00D9                        l1222 00C8  
                      l1214 00BA                        l1206 008A                        l1230 0227  
                      l1152 027D                        l1064 0168                        l1056 0162  
                      l1048 015C                        l1072 00E7                        l1224 00C9  
                      l1216 00BF                        l1208 0098                        l1232 0228  
                      l1066 0169                        l1058 0164                        l1082 0103  
                      l1074 00F5                        l1090 0124                        l1218 00C3  
                      l1234 0229                        l1226 0218                        l1092 0132  
                      l1084 0104                        l1076 00FB                        l1068 00D8  
                      l1180 0017                        l1236 022A                        l1228 0226  
                      l1094 0136                        l1086 0112                        l1078 00FD  
                      l1190 002B                        l1182 0025                        l1096 0138  
                      l1088 0122                        l1184 0027                        l1192 003A  
                      l1098 0146                        l1194 0048                        l1186 0029  
                      l1178 0016                        l1196 0056                        l1188 002A  
                      l1198 005A                        _ADIF 0066                        _ADFM 00FF  
                      _ADON 00F8                        _CHS0 00FA                        _CHS1 00FB  
                      _T0IE 005D                        _T0IF 005A                        _GPIO 0005  
                      _VCFG 00FE                        _TMR0 0001                        _main 0218  
                      btemp 005E                        start 000B               ??_MeasureTemp 0022  
           __end_of_Init_uC 0178                       ??_ISR 0020                       ?_main 0020  
                     _CMCON 0019                       _ANSEL 009F                       i1l134 0190  
                     i1l135 0191                       i1l137 019D                       u30_20 019B  
                     u30_21 019A                       u28_20 0184                       u28_21 0183  
                     u29_20 018E                       u29_21 018D                       u29_25 018A  
                     _VRCON 0099                       pclath 000A                       status 0003  
            _MeasureVoltage 01A4                       wtemp0 005E  __end_of_Pin6VoltageControl 014C  
           __initialization 000C                  _InitTimer0 0277                __end_of_main 022D  
       __end_of_MeasureTemp 01EC                      ??_main 0027                      _ADCON0 001F  
                    _ADRESH 001E                      _ADRESL 009E      __end_of_MeasureVoltage 01CA  
                    i1l1160 018E                      i1l1162 0192                      i1l1154 0178  
                    i1l1164 019B                      i1l1156 0180                      i1l1158 0184  
                    _TRISIO 0085                   ??_Init_uC 0024                  _ThreeShort 0253  
                _ShortSound 01EC                      saved_w 005E             ?_MeasureVoltage 0020  
   __end_of__initialization 0014                 _MeasureTemp 01CA                 ?_InitTimer0 0020  
            __pcstackCOMMON 0000             _TwoShortOneLong 0265             _TwoShortTwoLong 0240  
         __end_of_LongSound 0218                  __pbssBANK0 002A                  __pmaintext 0218  
                __pintentry 0004                 ?_ThreeShort 0020                 ?_ShortSound 0020  
                   _TRISIO0 0428                     _TRISIO1 0429                     _TRISIO2 042A  
                   _TRISIO4 042C                     _TRISIO5 042D     __end_of_TwoShortOneLong 0277  
                   _Init_uC 014C           _Pin7ThermoControl 0016     __end_of_TwoShortTwoLong 0253  
        ?_Pin7ThermoControl 0020         ??_Pin7ThermoControl 0000                     __ptext1 0016  
                   __ptext2 0253                     __ptext3 022D                     __ptext4 01CA  
                   __ptext5 00D8                     __ptext6 0240                     __ptext7 0265  
                   __ptext8 01EC                     __ptext9 01A4          _Pin6VoltageControl 00D8  
       ?_Pin6VoltageControl 0020        end_of_initialization 0014   __end_of_Pin7ThermoControl 00D8  
      ??_Pin6VoltageControl 0000            ??_MeasureVoltage 0022            ?_TwoShortOneLong 0020  
              ?_MeasureTemp 0020                ??_InitTimer0 0022            ?_TwoShortTwoLong 0020  
       start_initialization 000C                 __end_of_ISR 01A4          __end_of_InitTimer0 027F  
                 _LongSound 0202                ??_ThreeShort 0024                ??_ShortSound 0022  
                 ___latbits 0000               __pcstackBANK0 0020                  ?_LongSound 0020  
        __end_of_ThreeShort 0265                    ?_Init_uC 0020          __end_of_ShortSound 0202  
                 _errorFlag 0030           interrupt_function 0004           _ThreeLongOneShort 022D  
               ??_LongSound 0022          ?_ThreeLongOneShort 0020         ??_ThreeLongOneShort 0024  
                  _adcValue 002E   __end_of_ThreeLongOneShort 0240                    __ptext10 014C  
                  __ptext11 0202                    __ptext12 0277                    __ptext13 0178  
                  _pwmValue 002C                  _INTCONbits 000B                    intlevel1 0000  
                _OPTION_REG 0081  
