

Microchip MPLAB XC8 Assembler V2.36 build 20220127204148 
                                                                                               Thu Aug 03 19:37:15 2023

Microchip MPLAB XC8 C Compiler v2.36 (Free license) build 20220127204148 Og1 
     1                           	processor	12F675
     2                           	pagewidth 120
     3                           	opt	flic
     4                           	psect	cinit,global,class=CODE,merge=1,delta=2
     5                           	psect	bssBANK0,global,class=BANK0,space=1,delta=1,noexec
     6                           	psect	cstackCOMMON,global,class=COMMON,space=1,delta=1,noexec
     7                           	psect	cstackBANK0,global,class=BANK0,space=1,delta=1,noexec
     8                           	psect	maintext,global,class=CODE,split=1,delta=2
     9                           	psect	text1,local,class=CODE,merge=1,delta=2
    10                           	psect	text2,local,class=CODE,merge=1,delta=2
    11                           	psect	text3,local,class=CODE,merge=1,delta=2
    12                           	psect	text4,local,class=CODE,merge=1,delta=2
    13                           	psect	text5,local,class=CODE,merge=1,delta=2
    14                           	psect	text6,local,class=CODE,merge=1,delta=2
    15                           	psect	text7,local,class=CODE,merge=1,delta=2
    16                           	psect	text8,local,class=CODE,merge=1,delta=2
    17                           	psect	text9,local,class=CODE,merge=1,delta=2
    18                           	psect	text10,local,class=CODE,merge=1,delta=2
    19                           	psect	text11,local,class=CODE,merge=1,delta=2
    20                           	psect	text12,local,class=CODE,merge=1,delta=2
    21                           	psect	intentry,global,class=CODE,delta=2
    22                           	psect	config,global,abs,ovrld,class=CONFIG,space=4,delta=2,noexec
    23                           	dabs	1,0x5E,2
    24  0000                     
    25                           ; Version 2.20
    26                           ; Generated 29/04/2020 GMT
    27                           ; 
    28                           ; Copyright © 2020, Microchip Technology Inc. and its subsidiaries ("Microchip")
    29                           ; All rights reserved.
    30                           ; 
    31                           ; This software is developed by Microchip Technology Inc. and its subsidiaries ("Microch
      +                          ip").
    32                           ; 
    33                           ; Redistribution and use in source and binary forms, with or without modification, are
    34                           ; permitted provided that the following conditions are met:
    35                           ; 
    36                           ;     1. Redistributions of source code must retain the above copyright notice, this lis
      +                          t of
    37                           ;        conditions and the following disclaimer.
    38                           ; 
    39                           ;     2. Redistributions in binary form must reproduce the above copyright notice, this 
      +                          list
    40                           ;        of conditions and the following disclaimer in the documentation and/or other
    41                           ;        materials provided with the distribution.
    42                           ; 
    43                           ;     3. Microchip's name may not be used to endorse or promote products derived from th
      +                          is
    44                           ;        software without specific prior written permission.
    45                           ; 
    46                           ; THIS SOFTWARE IS PROVIDED BY MICROCHIP "AS IS" AND ANY EXPRESS OR IMPLIED WARRANTIES,
    47                           ; INCLUDING, BUT NOT LIMITED TO, THE IMPLIED WARRANTIES OF MERCHANTABILITY AND FITNESS F
      +                          OR
    48                           ; PURPOSE ARE DISCLAIMED.  IN NO EVENT SHALL MICROCHIP BE LIABLE FOR ANY DIRECT, INDIREC
      +                          T,
    49                           ; INCIDENTAL, SPECIAL, EXEMPLARY, OR CONSEQUENTIAL DAMAGES (INCLUDING BUT NOT LIMITED TO
    50                           ; PROCUREMENT OF SUBSTITUTE GOODS OR SERVICES; LOSS OF USE, DATA OR PROFITS; OR BUSINESS
    51                           ; INTERRUPTION) HOWSOEVER CAUSED AND ON ANY THEORY OF LIABILITY, WHETHER IN CONTRACT, ST
      +                          RICT
    52                           ; LIABILITY, OR TORT (INCLUDING NEGLIGENCE OR OTHERWISE) ARISING IN ANY WAY OUT OF THE U
      +                          SE OF
    53                           ; THIS SOFTWARE, EVEN IF ADVISED OF THE POSSIBILITY OF SUCH DAMAGE.
    54                           ; 
    55                           ; 
    56                           ; Code-generator required, PIC12F675 Definitions
    57                           ; 
    58                           ; SFR Addresses
    59  0000                     	;# 
    60  0001                     	;# 
    61  0002                     	;# 
    62  0003                     	;# 
    63  0004                     	;# 
    64  0005                     	;# 
    65  000A                     	;# 
    66  000B                     	;# 
    67  000C                     	;# 
    68  000E                     	;# 
    69  000E                     	;# 
    70  000F                     	;# 
    71  0010                     	;# 
    72  0019                     	;# 
    73  001E                     	;# 
    74  001F                     	;# 
    75  0081                     	;# 
    76  0085                     	;# 
    77  008C                     	;# 
    78  008E                     	;# 
    79  0090                     	;# 
    80  0095                     	;# 
    81  0096                     	;# 
    82  0096                     	;# 
    83  0099                     	;# 
    84  009A                     	;# 
    85  009A                     	;# 
    86  009B                     	;# 
    87  009C                     	;# 
    88  009D                     	;# 
    89  009E                     	;# 
    90  009F                     	;# 
    91  0000                     	;# 
    92  0001                     	;# 
    93  0002                     	;# 
    94  0003                     	;# 
    95  0004                     	;# 
    96  0005                     	;# 
    97  000A                     	;# 
    98  000B                     	;# 
    99  000C                     	;# 
   100  000E                     	;# 
   101  000E                     	;# 
   102  000F                     	;# 
   103  0010                     	;# 
   104  0019                     	;# 
   105  001E                     	;# 
   106  001F                     	;# 
   107  0081                     	;# 
   108  0085                     	;# 
   109  008C                     	;# 
   110  008E                     	;# 
   111  0090                     	;# 
   112  0095                     	;# 
   113  0096                     	;# 
   114  0096                     	;# 
   115  0099                     	;# 
   116  009A                     	;# 
   117  009A                     	;# 
   118  009B                     	;# 
   119  009C                     	;# 
   120  009D                     	;# 
   121  009E                     	;# 
   122  009F                     	;# 
   123  0000                     	;# 
   124  0001                     	;# 
   125  0002                     	;# 
   126  0003                     	;# 
   127  0004                     	;# 
   128  0005                     	;# 
   129  000A                     	;# 
   130  000B                     	;# 
   131  000C                     	;# 
   132  000E                     	;# 
   133  000E                     	;# 
   134  000F                     	;# 
   135  0010                     	;# 
   136  0019                     	;# 
   137  001E                     	;# 
   138  001F                     	;# 
   139  0081                     	;# 
   140  0085                     	;# 
   141  008C                     	;# 
   142  008E                     	;# 
   143  0090                     	;# 
   144  0095                     	;# 
   145  0096                     	;# 
   146  0096                     	;# 
   147  0099                     	;# 
   148  009A                     	;# 
   149  009A                     	;# 
   150  009B                     	;# 
   151  009C                     	;# 
   152  009D                     	;# 
   153  009E                     	;# 
   154  009F                     	;# 
   155  0000                     	;# 
   156  0001                     	;# 
   157  0002                     	;# 
   158  0003                     	;# 
   159  0004                     	;# 
   160  0005                     	;# 
   161  000A                     	;# 
   162  000B                     	;# 
   163  000C                     	;# 
   164  000E                     	;# 
   165  000E                     	;# 
   166  000F                     	;# 
   167  0010                     	;# 
   168  0019                     	;# 
   169  001E                     	;# 
   170  001F                     	;# 
   171  0081                     	;# 
   172  0085                     	;# 
   173  008C                     	;# 
   174  008E                     	;# 
   175  0090                     	;# 
   176  0095                     	;# 
   177  0096                     	;# 
   178  0096                     	;# 
   179  0099                     	;# 
   180  009A                     	;# 
   181  009A                     	;# 
   182  009B                     	;# 
   183  009C                     	;# 
   184  009D                     	;# 
   185  009E                     	;# 
   186  009F                     	;# 
   187  0000                     	;# 
   188  0001                     	;# 
   189  0002                     	;# 
   190  0003                     	;# 
   191  0004                     	;# 
   192  0005                     	;# 
   193  000A                     	;# 
   194  000B                     	;# 
   195  000C                     	;# 
   196  000E                     	;# 
   197  000E                     	;# 
   198  000F                     	;# 
   199  0010                     	;# 
   200  0019                     	;# 
   201  001E                     	;# 
   202  001F                     	;# 
   203  0081                     	;# 
   204  0085                     	;# 
   205  008C                     	;# 
   206  008E                     	;# 
   207  0090                     	;# 
   208  0095                     	;# 
   209  0096                     	;# 
   210  0096                     	;# 
   211  0099                     	;# 
   212  009A                     	;# 
   213  009A                     	;# 
   214  009B                     	;# 
   215  009C                     	;# 
   216  009D                     	;# 
   217  009E                     	;# 
   218  009F                     	;# 
   219  0000                     	;# 
   220  0001                     	;# 
   221  0002                     	;# 
   222  0003                     	;# 
   223  0004                     	;# 
   224  0005                     	;# 
   225  000A                     	;# 
   226  000B                     	;# 
   227  000C                     	;# 
   228  000E                     	;# 
   229  000E                     	;# 
   230  000F                     	;# 
   231  0010                     	;# 
   232  0019                     	;# 
   233  001E                     	;# 
   234  001F                     	;# 
   235  0081                     	;# 
   236  0085                     	;# 
   237  008C                     	;# 
   238  008E                     	;# 
   239  0090                     	;# 
   240  0095                     	;# 
   241  0096                     	;# 
   242  0096                     	;# 
   243  0099                     	;# 
   244  009A                     	;# 
   245  009A                     	;# 
   246  009B                     	;# 
   247  009C                     	;# 
   248  009D                     	;# 
   249  009E                     	;# 
   250  009F                     	;# 
   251  000B                     _INTCONbits	set	11
   252  0001                     _TMR0	set	1
   253  001E                     _ADRESH	set	30
   254  001F                     _ADCON0	set	31
   255  0005                     _GPIO	set	5
   256  0019                     _CMCON	set	25
   257  005D                     _T0IE	set	93
   258  005A                     _T0IF	set	90
   259  0066                     _ADIF	set	102
   260  00F9                     _GO	set	249
   261  00FA                     _CHS0	set	250
   262  00FB                     _CHS1	set	251
   263  00FF                     _ADFM	set	255
   264  005F                     _GIE	set	95
   265  00FE                     _VCFG	set	254
   266  00F8                     _ADON	set	248
   267  002C                     _GP4	set	44
   268  002D                     _GP5	set	45
   269  002A                     _GP2	set	42
   270  0081                     _OPTION_REG	set	129
   271  009E                     _ADRESL	set	158
   272  009F                     _ANSEL	set	159
   273  0085                     _TRISIO	set	133
   274  0099                     _VRCON	set	153
   275  0429                     _TRISIO1	set	1065
   276  0428                     _TRISIO0	set	1064
   277  042C                     _TRISIO4	set	1068
   278  042D                     _TRISIO5	set	1069
   279  042A                     _TRISIO2	set	1066
   280                           
   281                           	psect	cinit
   282  000C                     start_initialization:	
   283                           ; #config settings
   284                           
   285  000C                     __initialization:
   286                           
   287                           ; Clear objects allocated to BANK0
   288  000C  1283               	bcf	3,5	;RP0=0, select bank0
   289  000D  01A9               	clrf	__pbssBANK0& (0+127)
   290  000E  01AA               	clrf	(__pbssBANK0+1)& (0+127)
   291  000F  01AB               	clrf	(__pbssBANK0+2)& (0+127)
   292  0010  01AC               	clrf	(__pbssBANK0+3)& (0+127)
   293  0011  01AD               	clrf	(__pbssBANK0+4)& (0+127)
   294  0012  01AE               	clrf	(__pbssBANK0+5)& (0+127)
   295  0013                     end_of_initialization:	
   296                           ;End of C runtime variable initialization code
   297                           
   298  0013                     __end_of__initialization:
   299  0013  0183               	clrf	3
   300  0014  2A0E               	ljmp	_main	;jump to C main() function
   301                           
   302                           	psect	bssBANK0
   303  0029                     __pbssBANK0:
   304  0029                     _pulsePerTakt:
   305  0029                     	ds	2
   306  002B                     _pwmValue:
   307  002B                     	ds	2
   308  002D                     _adcValue:
   309  002D                     	ds	2
   310                           
   311                           	psect	cstackCOMMON
   312  0000                     __pcstackCOMMON:
   313  0000                     ??_Init_uC:
   314  0000                     ??_Pin7ThermoControl:	
   315                           ; 1 bytes @ 0x0
   316                           
   317  0000                     ??_main:	
   318                           ; 1 bytes @ 0x0
   319                           
   320                           
   321                           	psect	cstackBANK0
   322  0020                     __pcstackBANK0:	
   323                           ; 1 bytes @ 0x0
   324                           
   325  0020                     ?_TwoShortOneLong:
   326  0020                     ?_TwoShortTwoLong:	
   327                           ; 1 bytes @ 0x0
   328                           
   329  0020                     ?_ThreeLongOneShort:	
   330                           ; 1 bytes @ 0x0
   331                           
   332  0020                     ?_ThreeShort:	
   333                           ; 1 bytes @ 0x0
   334                           
   335  0020                     ?_Init_uC:	
   336                           ; 1 bytes @ 0x0
   337                           
   338  0020                     ?_Pin6VoltageControl:	
   339                           ; 1 bytes @ 0x0
   340                           
   341  0020                     ?_Pin7ThermoControl:	
   342                           ; 1 bytes @ 0x0
   343                           
   344  0020                     ?_ISR:	
   345                           ; 1 bytes @ 0x0
   346                           
   347  0020                     ??_ISR:	
   348                           ; 1 bytes @ 0x0
   349                           
   350  0020                     ?_InitTimer0:	
   351                           ; 1 bytes @ 0x0
   352                           
   353  0020                     ?_main:	
   354                           ; 1 bytes @ 0x0
   355                           
   356  0020                     ?_LongSound:	
   357                           ; 1 bytes @ 0x0
   358                           
   359  0020                     ?_ShortSound:	
   360                           ; 1 bytes @ 0x0
   361                           
   362  0020                     ?_MeasureTemp:	
   363                           ; 1 bytes @ 0x0
   364                           
   365                           
   366                           ; 2 bytes @ 0x0
   367  0020                     	ds	2
   368  0022                     ??_MeasureTemp:
   369  0022                     ??_InitTimer0:	
   370                           ; 1 bytes @ 0x2
   371                           
   372  0022                     ??_LongSound:	
   373                           ; 1 bytes @ 0x2
   374                           
   375  0022                     ??_ShortSound:	
   376                           ; 1 bytes @ 0x2
   377                           
   378                           
   379                           ; 1 bytes @ 0x2
   380  0022                     	ds	2
   381  0024                     ??_TwoShortOneLong:
   382  0024                     ??_TwoShortTwoLong:	
   383                           ; 1 bytes @ 0x4
   384                           
   385  0024                     ??_ThreeLongOneShort:	
   386                           ; 1 bytes @ 0x4
   387                           
   388  0024                     ??_ThreeShort:	
   389                           ; 1 bytes @ 0x4
   390                           
   391                           
   392                           ; 1 bytes @ 0x4
   393  0024                     	ds	3
   394  0027                     ??_Pin6VoltageControl:
   395                           
   396                           ; 1 bytes @ 0x7
   397  0027                     	ds	2
   398                           
   399                           	psect	maintext
   400  020E                     __pmaintext:	
   401 ;;
   402 ;;Main: autosize = 0, tempsize = 0, incstack = 0, save=0
   403 ;;
   404 ;; *************** function _main *****************
   405 ;; Defined at:
   406 ;;		line 62 in file "main.c"
   407 ;; Parameters:    Size  Location     Type
   408 ;;		None
   409 ;; Auto vars:     Size  Location     Type
   410 ;;		None
   411 ;; Return value:  Size  Location     Type
   412 ;;                  1    wreg      void 
   413 ;; Registers used:
   414 ;;		wreg, status,2, status,0, btemp+1, pclath, cstack
   415 ;; Tracked objects:
   416 ;;		On entry : B00/0
   417 ;;		On exit  : 0/0
   418 ;;		Unchanged: 0/0
   419 ;; Data sizes:     COMMON   BANK0
   420 ;;      Params:         0       0
   421 ;;      Locals:         0       0
   422 ;;      Temps:          0       0
   423 ;;      Totals:         0       0
   424 ;;Total ram usage:        0 bytes
   425 ;; Hardware stack levels required when called: 4
   426 ;; This function calls:
   427 ;;		_InitTimer0
   428 ;;		_Init_uC
   429 ;;		_Pin6VoltageControl
   430 ;;		_Pin7ThermoControl
   431 ;; This function is called by:
   432 ;;		Startup code after reset
   433 ;; This function uses a non-reentrant model
   434 ;;
   435                           
   436  020E                     _main:	
   437                           ;psect for function _main
   438                           
   439  020E                     l1165:	
   440                           ;incstack = 0
   441                           ; Regs used in _main: [wreg+status,2+status,0+btemp+1+pclath+cstack]
   442                           
   443  020E  2206               	fcall	_InitTimer0
   444  020F  2173               	fcall	_Init_uC
   445  0210                     l1167:
   446  0210  178B               	bsf	11,7	;volatile
   447  0211                     l1169:
   448  0211  2015               	fcall	_Pin7ThermoControl
   449  0212                     l1171:
   450  0212  20BD               	fcall	_Pin6VoltageControl
   451  0213  2A11               	goto	l1169
   452  0214  280B               	ljmp	start
   453  0215                     __end_of_main:
   454                           
   455                           	psect	text1
   456  0015                     __ptext1:	
   457 ;; *************** function _Pin7ThermoControl *****************
   458 ;; Defined at:
   459 ;;		line 76 in file "ADC.c"
   460 ;; Parameters:    Size  Location     Type
   461 ;;		None
   462 ;; Auto vars:     Size  Location     Type
   463 ;;		None
   464 ;; Return value:  Size  Location     Type
   465 ;;                  1    wreg      void 
   466 ;; Registers used:
   467 ;;		wreg, status,2, status,0, btemp+1, pclath, cstack
   468 ;; Tracked objects:
   469 ;;		On entry : 0/0
   470 ;;		On exit  : 0/0
   471 ;;		Unchanged: 0/0
   472 ;; Data sizes:     COMMON   BANK0
   473 ;;      Params:         0       0
   474 ;;      Locals:         0       0
   475 ;;      Temps:          0       0
   476 ;;      Totals:         0       0
   477 ;;Total ram usage:        0 bytes
   478 ;; Hardware stack levels used: 1
   479 ;; Hardware stack levels required when called: 3
   480 ;; This function calls:
   481 ;;		_MeasureTemp
   482 ;;		_ThreeLongOneShort
   483 ;;		_ThreeShort
   484 ;; This function is called by:
   485 ;;		_main
   486 ;; This function uses a non-reentrant model
   487 ;;
   488                           
   489  0015                     _Pin7ThermoControl:	
   490                           ;psect for function _Pin7ThermoControl
   491                           
   492  0015                     l1117:	
   493                           ;incstack = 0
   494                           ; Regs used in _Pin7ThermoControl: [wreg+status,2+status,0+btemp+1+pclath+cstack]
   495                           
   496                           
   497                           ;ADC.c: 78:              MeasureTemp();
   498  0015  2151               	fcall	_MeasureTemp
   499  0016                     l1119:
   500                           
   501                           ;ADC.c: 80:              if (adcValue < 200){
   502  0016  1283               	bcf	3,5	;RP0=0, select bank0
   503  0017  082E               	movf	_adcValue+1,w
   504  0018  3A80               	xorlw	128
   505  0019  00DF               	movwf	btemp+1
   506  001A  3080               	movlw	128
   507  001B  025F               	subwf	btemp+1,w
   508  001C  1D03               	skipz
   509  001D  2820               	goto	u235
   510  001E  30C8               	movlw	200
   511  001F  022D               	subwf	_adcValue,w
   512  0020                     u235:
   513  0020  1803               	skipnc
   514  0021  2823               	goto	u231
   515  0022  2824               	goto	u230
   516  0023                     u231:
   517  0023  282A               	goto	l1127
   518  0024                     u230:
   519  0024                     l1121:
   520                           
   521                           ;ADC.c: 81:                   GP5 = 1;
   522  0024  1283               	bcf	3,5	;RP0=0, select bank0
   523  0025  1685               	bsf	5,5	;volatile
   524  0026                     l1123:
   525                           
   526                           ;ADC.c: 82:                   pwmValue = 0;
   527  0026  01AB               	clrf	_pwmValue
   528  0027  01AC               	clrf	_pwmValue+1
   529  0028                     l1125:
   530                           
   531                           ;ADC.c: 83:                   ThreeLongOneShort();
   532  0028  21BC               	fcall	_ThreeLongOneShort
   533                           
   534                           ;ADC.c: 84:                 }
   535  0029  28BC               	goto	l91
   536  002A                     l1127:
   537  002A  1283               	bcf	3,5	;RP0=0, select bank0
   538  002B  082E               	movf	_adcValue+1,w
   539  002C  3A80               	xorlw	128
   540  002D  00DF               	movwf	btemp+1
   541  002E  3080               	movlw	128
   542  002F  025F               	subwf	btemp+1,w
   543  0030  1D03               	skipz
   544  0031  2834               	goto	u245
   545  0032  30C8               	movlw	200
   546  0033  022D               	subwf	_adcValue,w
   547  0034                     u245:
   548  0034  1C03               	skipc
   549  0035  2837               	goto	u241
   550  0036  2838               	goto	u240
   551  0037                     u241:
   552  0037  284B               	goto	l1135
   553  0038                     u240:
   554  0038                     l1129:
   555  0038  1283               	bcf	3,5	;RP0=0, select bank0
   556  0039  082E               	movf	_adcValue+1,w
   557  003A  3A80               	xorlw	128
   558  003B  00DF               	movwf	btemp+1
   559  003C  3083               	movlw	131
   560  003D  025F               	subwf	btemp+1,w
   561  003E  1D03               	skipz
   562  003F  2842               	goto	u255
   563  0040  3070               	movlw	112
   564  0041  022D               	subwf	_adcValue,w
   565  0042                     u255:
   566  0042  1803               	skipnc
   567  0043  2845               	goto	u251
   568  0044  2846               	goto	u250
   569  0045                     u251:
   570  0045  284B               	goto	l1135
   571  0046                     u250:
   572  0046                     l1131:
   573                           
   574                           ;ADC.c: 86:                         GP5 = 0;
   575  0046  1283               	bcf	3,5	;RP0=0, select bank0
   576  0047  1285               	bcf	5,5	;volatile
   577  0048                     l1133:
   578                           
   579                           ;ADC.c: 87:                         pwmValue = 0;
   580  0048  01AB               	clrf	_pwmValue
   581  0049  01AC               	clrf	_pwmValue+1
   582                           
   583                           ;ADC.c: 88:                        }
   584  004A  28BC               	goto	l91
   585  004B                     l1135:
   586  004B  1283               	bcf	3,5	;RP0=0, select bank0
   587  004C  082E               	movf	_adcValue+1,w
   588  004D  3A80               	xorlw	128
   589  004E  00DF               	movwf	btemp+1
   590  004F  3083               	movlw	131
   591  0050  025F               	subwf	btemp+1,w
   592  0051  1D03               	skipz
   593  0052  2855               	goto	u265
   594  0053  3070               	movlw	112
   595  0054  022D               	subwf	_adcValue,w
   596  0055                     u265:
   597  0055  1C03               	skipc
   598  0056  2858               	goto	u261
   599  0057  2859               	goto	u260
   600  0058                     u261:
   601  0058  286E               	goto	l1143
   602  0059                     u260:
   603  0059                     l1137:
   604  0059  1283               	bcf	3,5	;RP0=0, select bank0
   605  005A  082E               	movf	_adcValue+1,w
   606  005B  3A80               	xorlw	128
   607  005C  00DF               	movwf	btemp+1
   608  005D  3083               	movlw	131
   609  005E  025F               	subwf	btemp+1,w
   610  005F  1D03               	skipz
   611  0060  2863               	goto	u275
   612  0061  308E               	movlw	142
   613  0062  022D               	subwf	_adcValue,w
   614  0063                     u275:
   615  0063  1803               	skipnc
   616  0064  2866               	goto	u271
   617  0065  2867               	goto	u270
   618  0066                     u271:
   619  0066  286E               	goto	l1143
   620  0067                     u270:
   621  0067                     l1139:
   622                           
   623                           ;ADC.c: 90:                         GP5 = 0;
   624  0067  1283               	bcf	3,5	;RP0=0, select bank0
   625  0068  1285               	bcf	5,5	;volatile
   626  0069                     l1141:
   627                           
   628                           ;ADC.c: 91:                         pwmValue = 30;
   629  0069  301E               	movlw	30
   630  006A  00AB               	movwf	_pwmValue
   631  006B  3000               	movlw	0
   632  006C  00AC               	movwf	_pwmValue+1
   633                           
   634                           ;ADC.c: 92:                        }
   635  006D  28BC               	goto	l91
   636  006E                     l1143:
   637  006E  1283               	bcf	3,5	;RP0=0, select bank0
   638  006F  082E               	movf	_adcValue+1,w
   639  0070  3A80               	xorlw	128
   640  0071  00DF               	movwf	btemp+1
   641  0072  3083               	movlw	131
   642  0073  025F               	subwf	btemp+1,w
   643  0074  1D03               	skipz
   644  0075  2878               	goto	u285
   645  0076  308E               	movlw	142
   646  0077  022D               	subwf	_adcValue,w
   647  0078                     u285:
   648  0078  1C03               	skipc
   649  0079  287B               	goto	u281
   650  007A  287C               	goto	u280
   651  007B                     u281:
   652  007B  2891               	goto	l1151
   653  007C                     u280:
   654  007C                     l1145:
   655  007C  1283               	bcf	3,5	;RP0=0, select bank0
   656  007D  082E               	movf	_adcValue+1,w
   657  007E  3A80               	xorlw	128
   658  007F  00DF               	movwf	btemp+1
   659  0080  3083               	movlw	131
   660  0081  025F               	subwf	btemp+1,w
   661  0082  1D03               	skipz
   662  0083  2886               	goto	u295
   663  0084  30AC               	movlw	172
   664  0085  022D               	subwf	_adcValue,w
   665  0086                     u295:
   666  0086  1803               	skipnc
   667  0087  2889               	goto	u291
   668  0088  288A               	goto	u290
   669  0089                     u291:
   670  0089  2891               	goto	l1151
   671  008A                     u290:
   672  008A                     l1147:
   673                           
   674                           ;ADC.c: 94:                         GP5 = 0;
   675  008A  1283               	bcf	3,5	;RP0=0, select bank0
   676  008B  1285               	bcf	5,5	;volatile
   677  008C                     l1149:
   678                           
   679                           ;ADC.c: 95:                         pwmValue = 45;
   680  008C  302D               	movlw	45
   681  008D  00AB               	movwf	_pwmValue
   682  008E  3000               	movlw	0
   683  008F  00AC               	movwf	_pwmValue+1
   684                           
   685                           ;ADC.c: 96:                        }
   686  0090  28BC               	goto	l91
   687  0091                     l1151:
   688  0091  1283               	bcf	3,5	;RP0=0, select bank0
   689  0092  082E               	movf	_adcValue+1,w
   690  0093  3A80               	xorlw	128
   691  0094  00DF               	movwf	btemp+1
   692  0095  3083               	movlw	131
   693  0096  025F               	subwf	btemp+1,w
   694  0097  1D03               	skipz
   695  0098  289B               	goto	u305
   696  0099  30AC               	movlw	172
   697  009A  022D               	subwf	_adcValue,w
   698  009B                     u305:
   699  009B  1C03               	skipc
   700  009C  289E               	goto	u301
   701  009D  289F               	goto	u300
   702  009E                     u301:
   703  009E  28B5               	goto	l89
   704  009F                     u300:
   705  009F                     l1153:
   706  009F  1283               	bcf	3,5	;RP0=0, select bank0
   707  00A0  082E               	movf	_adcValue+1,w
   708  00A1  3A80               	xorlw	128
   709  00A2  00DF               	movwf	btemp+1
   710  00A3  3083               	movlw	131
   711  00A4  025F               	subwf	btemp+1,w
   712  00A5  1D03               	skipz
   713  00A6  28A9               	goto	u315
   714  00A7  30CA               	movlw	202
   715  00A8  022D               	subwf	_adcValue,w
   716  00A9                     u315:
   717  00A9  1803               	skipnc
   718  00AA  28AC               	goto	u311
   719  00AB  28AD               	goto	u310
   720  00AC                     u311:
   721  00AC  28B5               	goto	l89
   722  00AD                     u310:
   723  00AD                     l1155:
   724                           
   725                           ;ADC.c: 98:                         GP5 = 0;
   726  00AD  1283               	bcf	3,5	;RP0=0, select bank0
   727  00AE  1285               	bcf	5,5	;volatile
   728  00AF                     l1157:
   729                           
   730                           ;ADC.c: 99:                         pwmValue = 55;
   731  00AF  3037               	movlw	55
   732  00B0  00AB               	movwf	_pwmValue
   733  00B1  3000               	movlw	0
   734  00B2  00AC               	movwf	_pwmValue+1
   735  00B3                     l1159:
   736                           
   737                           ;ADC.c: 100:                         ThreeShort();
   738  00B3  21E2               	fcall	_ThreeShort
   739                           
   740                           ;ADC.c: 101:                        }
   741  00B4  28BC               	goto	l91
   742  00B5                     l89:	
   743                           ;ADC.c: 102:              else {
   744                           
   745                           
   746                           ;ADC.c: 103:                         GP5 = 1;
   747  00B5  1283               	bcf	3,5	;RP0=0, select bank0
   748  00B6  1685               	bsf	5,5	;volatile
   749  00B7                     l1161:
   750                           
   751                           ;ADC.c: 104:                         pwmValue = 85;
   752  00B7  3055               	movlw	85
   753  00B8  00AB               	movwf	_pwmValue
   754  00B9  3000               	movlw	0
   755  00BA  00AC               	movwf	_pwmValue+1
   756  00BB  28B3               	goto	l1159
   757  00BC                     l91:
   758  00BC  0008               	return
   759  00BD                     __end_of_Pin7ThermoControl:
   760                           
   761                           	psect	text2
   762  01E2                     __ptext2:	
   763 ;; *************** function _ThreeShort *****************
   764 ;; Defined at:
   765 ;;		line 41 in file "sounds.c"
   766 ;; Parameters:    Size  Location     Type
   767 ;;		None
   768 ;; Auto vars:     Size  Location     Type
   769 ;;		None
   770 ;; Return value:  Size  Location     Type
   771 ;;                  1    wreg      void 
   772 ;; Registers used:
   773 ;;		wreg, status,2, status,0, pclath, cstack
   774 ;; Tracked objects:
   775 ;;		On entry : 0/0
   776 ;;		On exit  : 0/0
   777 ;;		Unchanged: 0/0
   778 ;; Data sizes:     COMMON   BANK0
   779 ;;      Params:         0       0
   780 ;;      Locals:         0       0
   781 ;;      Temps:          0       3
   782 ;;      Totals:         0       3
   783 ;;Total ram usage:        3 bytes
   784 ;; Hardware stack levels used: 1
   785 ;; Hardware stack levels required when called: 2
   786 ;; This function calls:
   787 ;;		_ShortSound
   788 ;; This function is called by:
   789 ;;		_Pin7ThermoControl
   790 ;; This function uses a non-reentrant model
   791 ;;
   792                           
   793  01E2                     _ThreeShort:	
   794                           ;psect for function _ThreeShort
   795                           
   796  01E2                     l967:	
   797                           ;incstack = 0
   798                           ; Regs used in _ThreeShort: [wreg+status,2+status,0+pclath+cstack]
   799                           
   800                           
   801                           ;sounds.c: 42:    ShortSound();
   802  01E2  2190               	fcall	_ShortSound
   803                           
   804                           ;sounds.c: 43:    ShortSound();
   805  01E3  2190               	fcall	_ShortSound
   806                           
   807                           ;sounds.c: 44:    ShortSound();
   808  01E4  2190               	fcall	_ShortSound
   809  01E5                     l969:
   810                           
   811                           ;sounds.c: 45:    _delay((unsigned long)((700)*(4000000/4000.0)));
   812  01E5  3004               	movlw	4
   813  01E6  1283               	bcf	3,5	;RP0=0, select bank0
   814  01E7  00A6               	movwf	??_ThreeShort+2
   815  01E8  308E               	movlw	142
   816  01E9  00A5               	movwf	??_ThreeShort+1
   817  01EA  3012               	movlw	18
   818  01EB  00A4               	movwf	??_ThreeShort
   819  01EC                     u327:
   820  01EC  0BA4               	decfsz	??_ThreeShort,f
   821  01ED  29EC               	goto	u327
   822  01EE  0BA5               	decfsz	??_ThreeShort+1,f
   823  01EF  29EC               	goto	u327
   824  01F0  0BA6               	decfsz	??_ThreeShort+2,f
   825  01F1  29EC               	goto	u327
   826  01F2  0000               	nop
   827  01F3                     l167:
   828  01F3  0008               	return
   829  01F4                     __end_of_ThreeShort:
   830                           
   831                           	psect	text3
   832  01BC                     __ptext3:	
   833 ;; *************** function _ThreeLongOneShort *****************
   834 ;; Defined at:
   835 ;;		line 55 in file "sounds.c"
   836 ;; Parameters:    Size  Location     Type
   837 ;;		None
   838 ;; Auto vars:     Size  Location     Type
   839 ;;		None
   840 ;; Return value:  Size  Location     Type
   841 ;;                  1    wreg      void 
   842 ;; Registers used:
   843 ;;		wreg, status,2, status,0, pclath, cstack
   844 ;; Tracked objects:
   845 ;;		On entry : 0/0
   846 ;;		On exit  : 0/0
   847 ;;		Unchanged: 0/0
   848 ;; Data sizes:     COMMON   BANK0
   849 ;;      Params:         0       0
   850 ;;      Locals:         0       0
   851 ;;      Temps:          0       3
   852 ;;      Totals:         0       3
   853 ;;Total ram usage:        3 bytes
   854 ;; Hardware stack levels used: 1
   855 ;; Hardware stack levels required when called: 2
   856 ;; This function calls:
   857 ;;		_LongSound
   858 ;;		_ShortSound
   859 ;; This function is called by:
   860 ;;		_Pin7ThermoControl
   861 ;; This function uses a non-reentrant model
   862 ;;
   863                           
   864  01BC                     _ThreeLongOneShort:	
   865                           ;psect for function _ThreeLongOneShort
   866                           
   867  01BC                     l963:	
   868                           ;incstack = 0
   869                           ; Regs used in _ThreeLongOneShort: [wreg+status,2+status,0+pclath+cstack]
   870                           
   871                           
   872                           ;sounds.c: 56:    LongSound();
   873  01BC  21A6               	fcall	_LongSound
   874                           
   875                           ;sounds.c: 57:    LongSound();
   876  01BD  21A6               	fcall	_LongSound
   877                           
   878                           ;sounds.c: 58:    LongSound();
   879  01BE  21A6               	fcall	_LongSound
   880                           
   881                           ;sounds.c: 59:    ShortSound();
   882  01BF  2190               	fcall	_ShortSound
   883  01C0                     l965:
   884                           
   885                           ;sounds.c: 60:    _delay((unsigned long)((700)*(4000000/4000.0)));
   886  01C0  3004               	movlw	4
   887  01C1  1283               	bcf	3,5	;RP0=0, select bank0
   888  01C2  00A6               	movwf	??_ThreeLongOneShort+2
   889  01C3  308E               	movlw	142
   890  01C4  00A5               	movwf	??_ThreeLongOneShort+1
   891  01C5  3012               	movlw	18
   892  01C6  00A4               	movwf	??_ThreeLongOneShort
   893  01C7                     u337:
   894  01C7  0BA4               	decfsz	??_ThreeLongOneShort,f
   895  01C8  29C7               	goto	u337
   896  01C9  0BA5               	decfsz	??_ThreeLongOneShort+1,f
   897  01CA  29C7               	goto	u337
   898  01CB  0BA6               	decfsz	??_ThreeLongOneShort+2,f
   899  01CC  29C7               	goto	u337
   900  01CD  0000               	nop
   901  01CE                     l173:
   902  01CE  0008               	return
   903  01CF                     __end_of_ThreeLongOneShort:
   904                           
   905                           	psect	text4
   906  0151                     __ptext4:	
   907 ;; *************** function _MeasureTemp *****************
   908 ;; Defined at:
   909 ;;		line 113 in file "ADC.c"
   910 ;; Parameters:    Size  Location     Type
   911 ;;		None
   912 ;; Auto vars:     Size  Location     Type
   913 ;;		None
   914 ;; Return value:  Size  Location     Type
   915 ;;                  2   58[None  ] int 
   916 ;; Registers used:
   917 ;;		wreg, status,2
   918 ;; Tracked objects:
   919 ;;		On entry : 0/0
   920 ;;		On exit  : 0/0
   921 ;;		Unchanged: 0/0
   922 ;; Data sizes:     COMMON   BANK0
   923 ;;      Params:         0       0
   924 ;;      Locals:         0       0
   925 ;;      Temps:          0       2
   926 ;;      Totals:         0       2
   927 ;;Total ram usage:        2 bytes
   928 ;; Hardware stack levels used: 1
   929 ;; Hardware stack levels required when called: 1
   930 ;; This function calls:
   931 ;;		Nothing
   932 ;; This function is called by:
   933 ;;		_Pin7ThermoControl
   934 ;; This function uses a non-reentrant model
   935 ;;
   936                           
   937  0151                     _MeasureTemp:	
   938                           ;psect for function _MeasureTemp
   939                           
   940  0151                     l949:	
   941                           ;incstack = 0
   942                           ; Regs used in _MeasureTemp: [wreg+status,2]
   943                           
   944                           
   945                           ;ADC.c: 115:        ADCON0 = 0x00;
   946  0151  1283               	bcf	3,5	;RP0=0, select bank0
   947  0152  019F               	clrf	31	;volatile
   948  0153                     l951:
   949                           
   950                           ;ADC.c: 116:        ADFM = 1;
   951  0153  179F               	bsf	31,7	;volatile
   952  0154                     l953:
   953                           
   954                           ;ADC.c: 117:        ADON = 1;
   955  0154  141F               	bsf	31,0	;volatile
   956  0155                     l955:
   957                           
   958                           ;ADC.c: 119:        _delay((unsigned long)((5)*(4000000/4000.0)));
   959  0155  3007               	movlw	7
   960  0156  00A3               	movwf	??_MeasureTemp+1
   961  0157  307D               	movlw	125
   962  0158  00A2               	movwf	??_MeasureTemp
   963  0159                     u347:
   964  0159  0BA2               	decfsz	??_MeasureTemp,f
   965  015A  2959               	goto	u347
   966  015B  0BA3               	decfsz	??_MeasureTemp+1,f
   967  015C  2959               	goto	u347
   968  015D                     l957:
   969                           
   970                           ;ADC.c: 120:        GO = 1;
   971  015D  1283               	bcf	3,5	;RP0=0, select bank0
   972  015E  149F               	bsf	31,1	;volatile
   973  015F                     l94:	
   974                           ;ADC.c: 121:        while(!ADIF);
   975                           
   976  015F  1F0C               	btfss	12,6	;volatile
   977  0160  2962               	goto	u51
   978  0161  2963               	goto	u50
   979  0162                     u51:
   980  0162  295F               	goto	l94
   981  0163                     u50:
   982  0163                     l959:
   983                           
   984                           ;ADC.c: 122:        _delay((unsigned long)((5)*(4000000/4000.0)));
   985  0163  3007               	movlw	7
   986  0164  00A3               	movwf	??_MeasureTemp+1
   987  0165  307D               	movlw	125
   988  0166  00A2               	movwf	??_MeasureTemp
   989  0167                     u357:
   990  0167  0BA2               	decfsz	??_MeasureTemp,f
   991  0168  2967               	goto	u357
   992  0169  0BA3               	decfsz	??_MeasureTemp+1,f
   993  016A  2967               	goto	u357
   994                           
   995                           ;ADC.c: 124:        adcValue = (int) ((ADRESH << 8) + ADRESL);
   996  016B  1283               	bcf	3,5	;RP0=0, select bank0
   997  016C  081E               	movf	30,w	;volatile
   998  016D  00AE               	movwf	_adcValue+1
   999  016E  1683               	bsf	3,5	;RP0=1, select bank1
  1000  016F  081E               	movf	30,w	;volatile
  1001  0170  1283               	bcf	3,5	;RP0=0, select bank0
  1002  0171  00AD               	movwf	_adcValue
  1003  0172                     l97:
  1004  0172  0008               	return
  1005  0173                     __end_of_MeasureTemp:
  1006                           
  1007                           	psect	text5
  1008  00BD                     __ptext5:	
  1009 ;; *************** function _Pin6VoltageControl *****************
  1010 ;; Defined at:
  1011 ;;		line 46 in file "ADC.c"
  1012 ;; Parameters:    Size  Location     Type
  1013 ;;		None
  1014 ;; Auto vars:     Size  Location     Type
  1015 ;;		None
  1016 ;; Return value:  Size  Location     Type
  1017 ;;                  1    wreg      void 
  1018 ;; Registers used:
  1019 ;;		wreg, status,2, status,0, btemp+1, pclath, cstack
  1020 ;; Tracked objects:
  1021 ;;		On entry : 0/0
  1022 ;;		On exit  : 0/0
  1023 ;;		Unchanged: 0/0
  1024 ;; Data sizes:     COMMON   BANK0
  1025 ;;      Params:         0       0
  1026 ;;      Locals:         0       0
  1027 ;;      Temps:          0       2
  1028 ;;      Totals:         0       2
  1029 ;;Total ram usage:        2 bytes
  1030 ;; Hardware stack levels used: 1
  1031 ;; Hardware stack levels required when called: 3
  1032 ;; This function calls:
  1033 ;;		_TwoShortOneLong
  1034 ;;		_TwoShortTwoLong
  1035 ;; This function is called by:
  1036 ;;		_main
  1037 ;; This function uses a non-reentrant model
  1038 ;;
  1039                           
  1040  00BD                     _Pin6VoltageControl:	
  1041                           ;psect for function _Pin6VoltageControl
  1042                           
  1043  00BD                     l1003:	
  1044                           ;incstack = 0
  1045                           ; Regs used in _Pin6VoltageControl: [wreg+status,2+status,0+btemp+1+pclath+cstack]
  1046                           
  1047                           
  1048                           ;ADC.c: 48:     ADCON0 = 0x00;
  1049  00BD  1283               	bcf	3,5	;RP0=0, select bank0
  1050  00BE  019F               	clrf	31	;volatile
  1051  00BF                     l1005:
  1052                           
  1053                           ;ADC.c: 49:     ADFM = 1;
  1054  00BF  179F               	bsf	31,7	;volatile
  1055  00C0                     l1007:
  1056                           
  1057                           ;ADC.c: 50:     CHS1 = 0;
  1058  00C0  119F               	bcf	31,3	;volatile
  1059  00C1                     l1009:
  1060                           
  1061                           ;ADC.c: 51:     CHS0 = 1;
  1062  00C1  151F               	bsf	31,2	;volatile
  1063  00C2                     l1011:
  1064                           
  1065                           ;ADC.c: 52:     ADON = 1;
  1066  00C2  141F               	bsf	31,0	;volatile
  1067  00C3                     l1013:
  1068                           
  1069                           ;ADC.c: 54:      _delay((unsigned long)((10)*(4000000/4000.0)));
  1070  00C3  300D               	movlw	13
  1071  00C4  00A8               	movwf	??_Pin6VoltageControl+1
  1072  00C5  30FB               	movlw	251
  1073  00C6  00A7               	movwf	??_Pin6VoltageControl
  1074  00C7                     u367:
  1075  00C7  0BA7               	decfsz	??_Pin6VoltageControl,f
  1076  00C8  28C7               	goto	u367
  1077  00C9  0BA8               	decfsz	??_Pin6VoltageControl+1,f
  1078  00CA  28C7               	goto	u367
  1079  00CB  28CC               	nop2
  1080  00CC                     l1015:
  1081                           
  1082                           ;ADC.c: 56:        GO = 1;
  1083  00CC  1283               	bcf	3,5	;RP0=0, select bank0
  1084  00CD  149F               	bsf	31,1	;volatile
  1085  00CE                     l70:	
  1086                           ;ADC.c: 57:        while(!ADIF);
  1087                           
  1088  00CE  1F0C               	btfss	12,6	;volatile
  1089  00CF  28D1               	goto	u61
  1090  00D0  28D2               	goto	u60
  1091  00D1                     u61:
  1092  00D1  28CE               	goto	l70
  1093  00D2                     u60:
  1094  00D2                     l1017:
  1095                           
  1096                           ;ADC.c: 58:      _delay((unsigned long)((10)*(4000000/4000.0)));
  1097  00D2  300D               	movlw	13
  1098  00D3  00A8               	movwf	??_Pin6VoltageControl+1
  1099  00D4  30FB               	movlw	251
  1100  00D5  00A7               	movwf	??_Pin6VoltageControl
  1101  00D6                     u377:
  1102  00D6  0BA7               	decfsz	??_Pin6VoltageControl,f
  1103  00D7  28D6               	goto	u377
  1104  00D8  0BA8               	decfsz	??_Pin6VoltageControl+1,f
  1105  00D9  28D6               	goto	u377
  1106  00DA  28DB               	nop2
  1107                           
  1108                           ;ADC.c: 60:        adcValue = (int) ((ADRESH<<8)+ADRESL);
  1109  00DB  1283               	bcf	3,5	;RP0=0, select bank0
  1110  00DC  081E               	movf	30,w	;volatile
  1111  00DD  00AE               	movwf	_adcValue+1
  1112  00DE  1683               	bsf	3,5	;RP0=1, select bank1
  1113  00DF  081E               	movf	30,w	;volatile
  1114  00E0  1283               	bcf	3,5	;RP0=0, select bank0
  1115  00E1  00AD               	movwf	_adcValue
  1116  00E2                     l1019:
  1117                           
  1118                           ;ADC.c: 62:      if ((adcValue > 190) && (adcValue < 285)){
  1119  00E2  082E               	movf	_adcValue+1,w
  1120  00E3  3A80               	xorlw	128
  1121  00E4  00DF               	movwf	btemp+1
  1122  00E5  3080               	movlw	128
  1123  00E6  025F               	subwf	btemp+1,w
  1124  00E7  1D03               	skipz
  1125  00E8  28EB               	goto	u75
  1126  00E9  30BF               	movlw	191
  1127  00EA  022D               	subwf	_adcValue,w
  1128  00EB                     u75:
  1129  00EB  1C03               	skipc
  1130  00EC  28EE               	goto	u71
  1131  00ED  28EF               	goto	u70
  1132  00EE                     u71:
  1133  00EE  2901               	goto	l1025
  1134  00EF                     u70:
  1135  00EF                     l1021:
  1136  00EF  1283               	bcf	3,5	;RP0=0, select bank0
  1137  00F0  082E               	movf	_adcValue+1,w
  1138  00F1  3A80               	xorlw	128
  1139  00F2  00DF               	movwf	btemp+1
  1140  00F3  3081               	movlw	129
  1141  00F4  025F               	subwf	btemp+1,w
  1142  00F5  1D03               	skipz
  1143  00F6  28F9               	goto	u85
  1144  00F7  301D               	movlw	29
  1145  00F8  022D               	subwf	_adcValue,w
  1146  00F9                     u85:
  1147  00F9  1803               	skipnc
  1148  00FA  28FC               	goto	u81
  1149  00FB  28FD               	goto	u80
  1150  00FC                     u81:
  1151  00FC  2901               	goto	l1025
  1152  00FD                     u80:
  1153  00FD                     l1023:
  1154                           
  1155                           ;ADC.c: 63:          GP5 = 0;
  1156  00FD  1283               	bcf	3,5	;RP0=0, select bank0
  1157  00FE  1285               	bcf	5,5	;volatile
  1158                           
  1159                           ;ADC.c: 64:          GP2 = 0;
  1160  00FF  1105               	bcf	5,2	;volatile
  1161                           
  1162                           ;ADC.c: 65:         }
  1163  0100  2924               	goto	l78
  1164  0101                     l1025:
  1165  0101  1283               	bcf	3,5	;RP0=0, select bank0
  1166  0102  082E               	movf	_adcValue+1,w
  1167  0103  3A80               	xorlw	128
  1168  0104  00DF               	movwf	btemp+1
  1169  0105  3080               	movlw	128
  1170  0106  025F               	subwf	btemp+1,w
  1171  0107  1D03               	skipz
  1172  0108  290B               	goto	u95
  1173  0109  30BF               	movlw	191
  1174  010A  022D               	subwf	_adcValue,w
  1175  010B                     u95:
  1176  010B  1803               	skipnc
  1177  010C  290E               	goto	u91
  1178  010D  290F               	goto	u90
  1179  010E                     u91:
  1180  010E  2913               	goto	l1031
  1181  010F                     u90:
  1182  010F                     l1027:
  1183                           
  1184                           ;ADC.c: 67:          GP5 = 1;
  1185  010F  1283               	bcf	3,5	;RP0=0, select bank0
  1186  0110  1685               	bsf	5,5	;volatile
  1187  0111                     l1029:
  1188                           
  1189                           ;ADC.c: 68:          TwoShortOneLong();
  1190  0111  21F4               	fcall	_TwoShortOneLong
  1191                           
  1192                           ;ADC.c: 69:         }
  1193  0112  2924               	goto	l78
  1194  0113                     l1031:
  1195  0113  1283               	bcf	3,5	;RP0=0, select bank0
  1196  0114  082E               	movf	_adcValue+1,w
  1197  0115  3A80               	xorlw	128
  1198  0116  00DF               	movwf	btemp+1
  1199  0117  3081               	movlw	129
  1200  0118  025F               	subwf	btemp+1,w
  1201  0119  1D03               	skipz
  1202  011A  291D               	goto	u105
  1203  011B  301D               	movlw	29
  1204  011C  022D               	subwf	_adcValue,w
  1205  011D                     u105:
  1206  011D  1C03               	skipc
  1207  011E  2920               	goto	u101
  1208  011F  2921               	goto	u100
  1209  0120                     u101:
  1210  0120  2924               	goto	l78
  1211  0121                     u100:
  1212  0121                     l1033:
  1213                           
  1214                           ;ADC.c: 71:          GP5 = 1;
  1215  0121  1283               	bcf	3,5	;RP0=0, select bank0
  1216  0122  1685               	bsf	5,5	;volatile
  1217  0123                     l1035:
  1218                           
  1219                           ;ADC.c: 72:          TwoShortTwoLong();
  1220  0123  21CF               	fcall	_TwoShortTwoLong
  1221  0124                     l78:
  1222  0124  0008               	return
  1223  0125                     __end_of_Pin6VoltageControl:
  1224                           
  1225                           	psect	text6
  1226  01CF                     __ptext6:	
  1227 ;; *************** function _TwoShortTwoLong *****************
  1228 ;; Defined at:
  1229 ;;		line 27 in file "sounds.c"
  1230 ;; Parameters:    Size  Location     Type
  1231 ;;		None
  1232 ;; Auto vars:     Size  Location     Type
  1233 ;;		None
  1234 ;; Return value:  Size  Location     Type
  1235 ;;                  1    wreg      void 
  1236 ;; Registers used:
  1237 ;;		wreg, status,2, status,0, pclath, cstack
  1238 ;; Tracked objects:
  1239 ;;		On entry : 0/0
  1240 ;;		On exit  : 0/0
  1241 ;;		Unchanged: 0/0
  1242 ;; Data sizes:     COMMON   BANK0
  1243 ;;      Params:         0       0
  1244 ;;      Locals:         0       0
  1245 ;;      Temps:          0       3
  1246 ;;      Totals:         0       3
  1247 ;;Total ram usage:        3 bytes
  1248 ;; Hardware stack levels used: 1
  1249 ;; Hardware stack levels required when called: 2
  1250 ;; This function calls:
  1251 ;;		_LongSound
  1252 ;;		_ShortSound
  1253 ;; This function is called by:
  1254 ;;		_Pin6VoltageControl
  1255 ;; This function uses a non-reentrant model
  1256 ;;
  1257                           
  1258  01CF                     _TwoShortTwoLong:	
  1259                           ;psect for function _TwoShortTwoLong
  1260                           
  1261  01CF                     l945:	
  1262                           ;incstack = 0
  1263                           ; Regs used in _TwoShortTwoLong: [wreg+status,2+status,0+pclath+cstack]
  1264                           
  1265                           
  1266                           ;sounds.c: 28:    ShortSound();
  1267  01CF  2190               	fcall	_ShortSound
  1268                           
  1269                           ;sounds.c: 29:    ShortSound();
  1270  01D0  2190               	fcall	_ShortSound
  1271                           
  1272                           ;sounds.c: 30:    LongSound();
  1273  01D1  21A6               	fcall	_LongSound
  1274                           
  1275                           ;sounds.c: 31:    LongSound();
  1276  01D2  21A6               	fcall	_LongSound
  1277  01D3                     l947:
  1278                           
  1279                           ;sounds.c: 32:    _delay((unsigned long)((700)*(4000000/4000.0)));
  1280  01D3  3004               	movlw	4
  1281  01D4  1283               	bcf	3,5	;RP0=0, select bank0
  1282  01D5  00A6               	movwf	??_TwoShortTwoLong+2
  1283  01D6  308E               	movlw	142
  1284  01D7  00A5               	movwf	??_TwoShortTwoLong+1
  1285  01D8  3012               	movlw	18
  1286  01D9  00A4               	movwf	??_TwoShortTwoLong
  1287  01DA                     u387:
  1288  01DA  0BA4               	decfsz	??_TwoShortTwoLong,f
  1289  01DB  29DA               	goto	u387
  1290  01DC  0BA5               	decfsz	??_TwoShortTwoLong+1,f
  1291  01DD  29DA               	goto	u387
  1292  01DE  0BA6               	decfsz	??_TwoShortTwoLong+2,f
  1293  01DF  29DA               	goto	u387
  1294  01E0  0000               	nop
  1295  01E1                     l161:
  1296  01E1  0008               	return
  1297  01E2                     __end_of_TwoShortTwoLong:
  1298                           
  1299                           	psect	text7
  1300  01F4                     __ptext7:	
  1301 ;; *************** function _TwoShortOneLong *****************
  1302 ;; Defined at:
  1303 ;;		line 20 in file "sounds.c"
  1304 ;; Parameters:    Size  Location     Type
  1305 ;;		None
  1306 ;; Auto vars:     Size  Location     Type
  1307 ;;		None
  1308 ;; Return value:  Size  Location     Type
  1309 ;;                  1    wreg      void 
  1310 ;; Registers used:
  1311 ;;		wreg, status,2, status,0, pclath, cstack
  1312 ;; Tracked objects:
  1313 ;;		On entry : 0/0
  1314 ;;		On exit  : 0/0
  1315 ;;		Unchanged: 0/0
  1316 ;; Data sizes:     COMMON   BANK0
  1317 ;;      Params:         0       0
  1318 ;;      Locals:         0       0
  1319 ;;      Temps:          0       3
  1320 ;;      Totals:         0       3
  1321 ;;Total ram usage:        3 bytes
  1322 ;; Hardware stack levels used: 1
  1323 ;; Hardware stack levels required when called: 2
  1324 ;; This function calls:
  1325 ;;		_LongSound
  1326 ;;		_ShortSound
  1327 ;; This function is called by:
  1328 ;;		_Pin6VoltageControl
  1329 ;; This function uses a non-reentrant model
  1330 ;;
  1331                           
  1332  01F4                     _TwoShortOneLong:	
  1333                           ;psect for function _TwoShortOneLong
  1334                           
  1335  01F4                     l941:	
  1336                           ;incstack = 0
  1337                           ; Regs used in _TwoShortOneLong: [wreg+status,2+status,0+pclath+cstack]
  1338                           
  1339                           
  1340                           ;sounds.c: 21:    ShortSound();
  1341  01F4  2190               	fcall	_ShortSound
  1342                           
  1343                           ;sounds.c: 22:    ShortSound();
  1344  01F5  2190               	fcall	_ShortSound
  1345                           
  1346                           ;sounds.c: 23:    LongSound();
  1347  01F6  21A6               	fcall	_LongSound
  1348  01F7                     l943:
  1349                           
  1350                           ;sounds.c: 24:    _delay((unsigned long)((700)*(4000000/4000.0)));
  1351  01F7  3004               	movlw	4
  1352  01F8  1283               	bcf	3,5	;RP0=0, select bank0
  1353  01F9  00A6               	movwf	??_TwoShortOneLong+2
  1354  01FA  308E               	movlw	142
  1355  01FB  00A5               	movwf	??_TwoShortOneLong+1
  1356  01FC  3012               	movlw	18
  1357  01FD  00A4               	movwf	??_TwoShortOneLong
  1358  01FE                     u397:
  1359  01FE  0BA4               	decfsz	??_TwoShortOneLong,f
  1360  01FF  29FE               	goto	u397
  1361  0200  0BA5               	decfsz	??_TwoShortOneLong+1,f
  1362  0201  29FE               	goto	u397
  1363  0202  0BA6               	decfsz	??_TwoShortOneLong+2,f
  1364  0203  29FE               	goto	u397
  1365  0204  0000               	nop
  1366  0205                     l158:
  1367  0205  0008               	return
  1368  0206                     __end_of_TwoShortOneLong:
  1369                           
  1370                           	psect	text8
  1371  0190                     __ptext8:	
  1372 ;; *************** function _ShortSound *****************
  1373 ;; Defined at:
  1374 ;;		line 13 in file "sounds.c"
  1375 ;; Parameters:    Size  Location     Type
  1376 ;;		None
  1377 ;; Auto vars:     Size  Location     Type
  1378 ;;		None
  1379 ;; Return value:  Size  Location     Type
  1380 ;;                  1    wreg      void 
  1381 ;; Registers used:
  1382 ;;		wreg
  1383 ;; Tracked objects:
  1384 ;;		On entry : 0/0
  1385 ;;		On exit  : 0/0
  1386 ;;		Unchanged: 0/0
  1387 ;; Data sizes:     COMMON   BANK0
  1388 ;;      Params:         0       0
  1389 ;;      Locals:         0       0
  1390 ;;      Temps:          0       2
  1391 ;;      Totals:         0       2
  1392 ;;Total ram usage:        2 bytes
  1393 ;; Hardware stack levels used: 1
  1394 ;; Hardware stack levels required when called: 1
  1395 ;; This function calls:
  1396 ;;		Nothing
  1397 ;; This function is called by:
  1398 ;;		_TwoShortOneLong
  1399 ;;		_TwoShortTwoLong
  1400 ;;		_ThreeShort
  1401 ;;		_ThreeLongOneShort
  1402 ;;		_TwoShort
  1403 ;; This function uses a non-reentrant model
  1404 ;;
  1405                           
  1406  0190                     _ShortSound:	
  1407                           ;psect for function _ShortSound
  1408                           
  1409  0190                     l935:	
  1410                           ;incstack = 0
  1411                           ; Regs used in _ShortSound: [wreg]
  1412                           
  1413                           
  1414                           ;sounds.c: 14:    GP2 = 1;
  1415  0190  1283               	bcf	3,5	;RP0=0, select bank0
  1416  0191  1505               	bsf	5,2	;volatile
  1417  0192                     l937:
  1418                           
  1419                           ;sounds.c: 15:     _delay((unsigned long)((60)*(4000000/4000.0)));
  1420  0192  304E               	movlw	78
  1421  0193  00A3               	movwf	??_ShortSound+1
  1422  0194  30EB               	movlw	235
  1423  0195  00A2               	movwf	??_ShortSound
  1424  0196                     u407:
  1425  0196  0BA2               	decfsz	??_ShortSound,f
  1426  0197  2996               	goto	u407
  1427  0198  0BA3               	decfsz	??_ShortSound+1,f
  1428  0199  2996               	goto	u407
  1429  019A                     l939:
  1430                           
  1431                           ;sounds.c: 16:    GP2 = 0;
  1432  019A  1283               	bcf	3,5	;RP0=0, select bank0
  1433  019B  1105               	bcf	5,2	;volatile
  1434                           
  1435                           ;sounds.c: 17:     _delay((unsigned long)((80)*(4000000/4000.0)));
  1436  019C  3068               	movlw	104
  1437  019D  00A3               	movwf	??_ShortSound+1
  1438  019E  30E4               	movlw	228
  1439  019F  00A2               	movwf	??_ShortSound
  1440  01A0                     u417:
  1441  01A0  0BA2               	decfsz	??_ShortSound,f
  1442  01A1  29A0               	goto	u417
  1443  01A2  0BA3               	decfsz	??_ShortSound+1,f
  1444  01A3  29A0               	goto	u417
  1445  01A4  0000               	nop
  1446  01A5                     l155:
  1447  01A5  0008               	return
  1448  01A6                     __end_of_ShortSound:
  1449                           
  1450                           	psect	text9
  1451  01A6                     __ptext9:	
  1452 ;; *************** function _LongSound *****************
  1453 ;; Defined at:
  1454 ;;		line 6 in file "sounds.c"
  1455 ;; Parameters:    Size  Location     Type
  1456 ;;		None
  1457 ;; Auto vars:     Size  Location     Type
  1458 ;;		None
  1459 ;; Return value:  Size  Location     Type
  1460 ;;                  1    wreg      void 
  1461 ;; Registers used:
  1462 ;;		wreg
  1463 ;; Tracked objects:
  1464 ;;		On entry : 0/0
  1465 ;;		On exit  : 0/0
  1466 ;;		Unchanged: 0/0
  1467 ;; Data sizes:     COMMON   BANK0
  1468 ;;      Params:         0       0
  1469 ;;      Locals:         0       0
  1470 ;;      Temps:          0       2
  1471 ;;      Totals:         0       2
  1472 ;;Total ram usage:        2 bytes
  1473 ;; Hardware stack levels used: 1
  1474 ;; Hardware stack levels required when called: 1
  1475 ;; This function calls:
  1476 ;;		Nothing
  1477 ;; This function is called by:
  1478 ;;		_TwoShortOneLong
  1479 ;;		_TwoShortTwoLong
  1480 ;;		_ThreeLongOneShort
  1481 ;;		_ThreeLong
  1482 ;; This function uses a non-reentrant model
  1483 ;;
  1484                           
  1485  01A6                     _LongSound:	
  1486                           ;psect for function _LongSound
  1487                           
  1488  01A6                     l929:	
  1489                           ;incstack = 0
  1490                           ; Regs used in _LongSound: [wreg]
  1491                           
  1492                           
  1493                           ;sounds.c: 7:    GP2 = 1;
  1494  01A6  1283               	bcf	3,5	;RP0=0, select bank0
  1495  01A7  1505               	bsf	5,2	;volatile
  1496  01A8                     l931:
  1497                           
  1498                           ;sounds.c: 8:     _delay((unsigned long)((150)*(4000000/4000.0)));
  1499  01A8  30C3               	movlw	195
  1500  01A9  00A3               	movwf	??_LongSound+1
  1501  01AA  30CD               	movlw	205
  1502  01AB  00A2               	movwf	??_LongSound
  1503  01AC                     u427:
  1504  01AC  0BA2               	decfsz	??_LongSound,f
  1505  01AD  29AC               	goto	u427
  1506  01AE  0BA3               	decfsz	??_LongSound+1,f
  1507  01AF  29AC               	goto	u427
  1508  01B0                     l933:
  1509                           
  1510                           ;sounds.c: 9:    GP2 = 0;
  1511  01B0  1283               	bcf	3,5	;RP0=0, select bank0
  1512  01B1  1105               	bcf	5,2	;volatile
  1513                           
  1514                           ;sounds.c: 10:     _delay((unsigned long)((80)*(4000000/4000.0)));
  1515  01B2  3068               	movlw	104
  1516  01B3  00A3               	movwf	??_LongSound+1
  1517  01B4  30E4               	movlw	228
  1518  01B5  00A2               	movwf	??_LongSound
  1519  01B6                     u437:
  1520  01B6  0BA2               	decfsz	??_LongSound,f
  1521  01B7  29B6               	goto	u437
  1522  01B8  0BA3               	decfsz	??_LongSound+1,f
  1523  01B9  29B6               	goto	u437
  1524  01BA  0000               	nop
  1525  01BB                     l152:
  1526  01BB  0008               	return
  1527  01BC                     __end_of_LongSound:
  1528                           
  1529                           	psect	text10
  1530  0173                     __ptext10:	
  1531 ;; *************** function _Init_uC *****************
  1532 ;; Defined at:
  1533 ;;		line 11 in file "ADC.c"
  1534 ;; Parameters:    Size  Location     Type
  1535 ;;		None
  1536 ;; Auto vars:     Size  Location     Type
  1537 ;;		None
  1538 ;; Return value:  Size  Location     Type
  1539 ;;                  1    wreg      void 
  1540 ;; Registers used:
  1541 ;;		wreg, status,2
  1542 ;; Tracked objects:
  1543 ;;		On entry : 0/0
  1544 ;;		On exit  : 0/0
  1545 ;;		Unchanged: 0/0
  1546 ;; Data sizes:     COMMON   BANK0
  1547 ;;      Params:         0       0
  1548 ;;      Locals:         0       0
  1549 ;;      Temps:          0       0
  1550 ;;      Totals:         0       0
  1551 ;;Total ram usage:        0 bytes
  1552 ;; Hardware stack levels used: 1
  1553 ;; Hardware stack levels required when called: 1
  1554 ;; This function calls:
  1555 ;;		Nothing
  1556 ;; This function is called by:
  1557 ;;		_main
  1558 ;; This function uses a non-reentrant model
  1559 ;;
  1560                           
  1561  0173                     _Init_uC:	
  1562                           ;psect for function _Init_uC
  1563                           
  1564  0173                     l971:	
  1565                           ;incstack = 0
  1566                           ; Regs used in _Init_uC: [wreg+status,2]
  1567                           
  1568                           
  1569                           ;ADC.c: 12:  CMCON = 0x07;
  1570  0173  3007               	movlw	7
  1571  0174  1283               	bcf	3,5	;RP0=0, select bank0
  1572  0175  0099               	movwf	25	;volatile
  1573  0176                     l973:
  1574                           
  1575                           ;ADC.c: 13:     VRCON = 0x00;
  1576  0176  1683               	bsf	3,5	;RP0=1, select bank1
  1577  0177  0199               	clrf	25	;volatile
  1578  0178                     l975:
  1579                           
  1580                           ;ADC.c: 16:     TRISIO = 0;
  1581  0178  0185               	clrf	5	;volatile
  1582  0179                     l977:
  1583                           
  1584                           ;ADC.c: 17:     GPIO = 0;
  1585  0179  1283               	bcf	3,5	;RP0=0, select bank0
  1586  017A  0185               	clrf	5	;volatile
  1587  017B                     l979:
  1588                           
  1589                           ;ADC.c: 20:     TRISIO2 = 0;
  1590  017B  1683               	bsf	3,5	;RP0=1, select bank1
  1591  017C  1105               	bcf	5,2	;volatile
  1592  017D                     l981:
  1593                           
  1594                           ;ADC.c: 21:     GP2 = 0;
  1595  017D  1283               	bcf	3,5	;RP0=0, select bank0
  1596  017E  1105               	bcf	5,2	;volatile
  1597  017F                     l983:
  1598                           
  1599                           ;ADC.c: 24:     TRISIO5 = 0;
  1600  017F  1683               	bsf	3,5	;RP0=1, select bank1
  1601  0180  1285               	bcf	5,5	;volatile
  1602  0181                     l985:
  1603                           
  1604                           ;ADC.c: 25:     GP5 = 1;
  1605  0181  1283               	bcf	3,5	;RP0=0, select bank0
  1606  0182  1685               	bsf	5,5	;volatile
  1607  0183                     l987:
  1608                           
  1609                           ;ADC.c: 28:     TRISIO4 = 0;
  1610  0183  1683               	bsf	3,5	;RP0=1, select bank1
  1611  0184  1205               	bcf	5,4	;volatile
  1612  0185                     l989:
  1613                           
  1614                           ;ADC.c: 29:     GP4 = 0;
  1615  0185  1283               	bcf	3,5	;RP0=0, select bank0
  1616  0186  1205               	bcf	5,4	;volatile
  1617  0187                     l991:
  1618                           
  1619                           ;ADC.c: 33:     ADON = 1;
  1620  0187  141F               	bsf	31,0	;volatile
  1621  0188                     l993:
  1622                           
  1623                           ;ADC.c: 35:     VCFG = 1;
  1624  0188  171F               	bsf	31,6	;volatile
  1625  0189                     l995:
  1626                           
  1627                           ;ADC.c: 36:     TRISIO0 = 1;
  1628  0189  1683               	bsf	3,5	;RP0=1, select bank1
  1629  018A  1405               	bsf	5,0	;volatile
  1630  018B                     l997:
  1631                           
  1632                           ;ADC.c: 37:     TRISIO1 = 1;
  1633  018B  1485               	bsf	5,1	;volatile
  1634  018C                     l999:
  1635                           
  1636                           ;ADC.c: 39:     ANSEL = 0b00110011;
  1637  018C  3033               	movlw	51
  1638  018D  009F               	movwf	31	;volatile
  1639  018E                     l1001:
  1640                           
  1641                           ;ADC.c: 42:     GIE = 1;
  1642  018E  178B               	bsf	11,7	;volatile
  1643  018F                     l67:
  1644  018F  0008               	return
  1645  0190                     __end_of_Init_uC:
  1646                           
  1647                           	psect	text11
  1648  0206                     __ptext11:	
  1649 ;; *************** function _InitTimer0 *****************
  1650 ;; Defined at:
  1651 ;;		line 4 in file "timer0.c"
  1652 ;; Parameters:    Size  Location     Type
  1653 ;;		None
  1654 ;; Auto vars:     Size  Location     Type
  1655 ;;		None
  1656 ;; Return value:  Size  Location     Type
  1657 ;;                  1    wreg      void 
  1658 ;; Registers used:
  1659 ;;		wreg, status,2, status,0
  1660 ;; Tracked objects:
  1661 ;;		On entry : 0/0
  1662 ;;		On exit  : 0/0
  1663 ;;		Unchanged: 0/0
  1664 ;; Data sizes:     COMMON   BANK0
  1665 ;;      Params:         0       0
  1666 ;;      Locals:         0       0
  1667 ;;      Temps:          0       1
  1668 ;;      Totals:         0       1
  1669 ;;Total ram usage:        1 bytes
  1670 ;; Hardware stack levels used: 1
  1671 ;; Hardware stack levels required when called: 1
  1672 ;; This function calls:
  1673 ;;		Nothing
  1674 ;; This function is called by:
  1675 ;;		_main
  1676 ;; This function uses a non-reentrant model
  1677 ;;
  1678                           
  1679  0206                     _InitTimer0:	
  1680                           ;psect for function _InitTimer0
  1681                           
  1682  0206                     l1085:	
  1683                           ;incstack = 0
  1684                           ; Regs used in _InitTimer0: [wreg+status,2+status,0]
  1685                           
  1686                           
  1687                           ;timer0.c: 7:  OPTION_REG &= 0xC0;
  1688  0206  30C0               	movlw	192
  1689  0207  1283               	bcf	3,5	;RP0=0, select bank0
  1690  0208  00A2               	movwf	??_InitTimer0
  1691  0209  0822               	movf	??_InitTimer0,w
  1692  020A  1683               	bsf	3,5	;RP0=1, select bank1
  1693  020B  0581               	andwf	1,f	;volatile
  1694  020C                     l1087:
  1695                           
  1696                           ;timer0.c: 8:  T0IE = 1;
  1697  020C  168B               	bsf	11,5	;volatile
  1698  020D                     l123:
  1699  020D  0008               	return
  1700  020E                     __end_of_InitTimer0:
  1701                           
  1702                           	psect	text12
  1703  0125                     __ptext12:	
  1704 ;; *************** function _ISR *****************
  1705 ;; Defined at:
  1706 ;;		line 7 in file "interrupt.c"
  1707 ;; Parameters:    Size  Location     Type
  1708 ;;		None
  1709 ;; Auto vars:     Size  Location     Type
  1710 ;;		None
  1711 ;; Return value:  Size  Location     Type
  1712 ;;                  1    wreg      void 
  1713 ;; Registers used:
  1714 ;;		wreg, status,2
  1715 ;; Tracked objects:
  1716 ;;		On entry : 0/0
  1717 ;;		On exit  : 0/0
  1718 ;;		Unchanged: 0/0
  1719 ;; Data sizes:     COMMON   BANK0
  1720 ;;      Params:         0       0
  1721 ;;      Locals:         0       0
  1722 ;;      Temps:          0       2
  1723 ;;      Totals:         0       2
  1724 ;;Total ram usage:        2 bytes
  1725 ;; Hardware stack levels used: 1
  1726 ;; This function calls:
  1727 ;;		Nothing
  1728 ;; This function is called by:
  1729 ;;		Interrupt level 1
  1730 ;; This function uses a non-reentrant model
  1731 ;;
  1732                           
  1733  0125                     _ISR:	
  1734                           ;psect for function _ISR
  1735                           
  1736  0125                     i1l1089:
  1737                           
  1738                           ;interrupt.c: 9:       TMR0 = 200;
  1739  0125  30C8               	movlw	200
  1740  0126  0081               	movwf	1	;volatile
  1741                           
  1742                           ;interrupt.c: 10:       pulsePerTakt++;
  1743  0127  3001               	movlw	1
  1744  0128  07A9               	addwf	_pulsePerTakt,f
  1745  0129  1803               	skipnc
  1746  012A  0AAA               	incf	_pulsePerTakt+1,f
  1747  012B  3000               	movlw	0
  1748  012C  07AA               	addwf	_pulsePerTakt+1,f
  1749  012D                     i1l1091:
  1750                           
  1751                           ;interrupt.c: 11:    if(T0IF)
  1752  012D  1D0B               	btfss	11,2	;volatile
  1753  012E  2930               	goto	u20_21
  1754  012F  2931               	goto	u20_20
  1755  0130                     u20_21:
  1756  0130  293F               	goto	i1l1097
  1757  0131                     u20_20:
  1758  0131                     i1l1093:
  1759                           
  1760                           ;interrupt.c: 12:     {;interrupt.c: 13:         if (pulsePerTakt < pwmValue)
  1761  0131  082C               	movf	_pwmValue+1,w
  1762  0132  022A               	subwf	_pulsePerTakt+1,w
  1763  0133  1D03               	skipz
  1764  0134  2937               	goto	u21_25
  1765  0135  082B               	movf	_pwmValue,w
  1766  0136  0229               	subwf	_pulsePerTakt,w
  1767  0137                     u21_25:
  1768  0137  1803               	skipnc
  1769  0138  293A               	goto	u21_21
  1770  0139  293B               	goto	u21_20
  1771  013A                     u21_21:
  1772  013A  293D               	goto	i1l113
  1773  013B                     u21_20:
  1774  013B                     i1l1095:
  1775                           
  1776                           ;interrupt.c: 14:          {GP4 = 1;}
  1777  013B  1605               	bsf	5,4	;volatile
  1778  013C  293E               	goto	i1l114
  1779  013D                     i1l113:	
  1780                           ;interrupt.c: 15:         else
  1781                           
  1782                           
  1783                           ;interrupt.c: 16:    {GP4 = 0;}
  1784  013D  1205               	bcf	5,4	;volatile
  1785  013E                     i1l114:
  1786                           
  1787                           ;interrupt.c: 17:   T0IF = 0;
  1788  013E  110B               	bcf	11,2	;volatile
  1789  013F                     i1l1097:
  1790                           
  1791                           ;interrupt.c: 19:       if (pulsePerTakt > 100)
  1792  013F  3000               	movlw	0
  1793  0140  022A               	subwf	_pulsePerTakt+1,w
  1794  0141  3065               	movlw	101
  1795  0142  1903               	skipnz
  1796  0143  0229               	subwf	_pulsePerTakt,w
  1797  0144  1C03               	skipc
  1798  0145  2947               	goto	u22_21
  1799  0146  2948               	goto	u22_20
  1800  0147                     u22_21:
  1801  0147  294A               	goto	i1l116
  1802  0148                     u22_20:
  1803  0148                     i1l1099:
  1804                           
  1805                           ;interrupt.c: 20:        {;interrupt.c: 21:          pulsePerTakt = 0;
  1806  0148  01A9               	clrf	_pulsePerTakt
  1807  0149  01AA               	clrf	_pulsePerTakt+1
  1808  014A                     i1l116:
  1809  014A  0821               	movf	??_ISR+1,w
  1810  014B  008A               	movwf	10
  1811  014C  0E20               	swapf	??_ISR,w
  1812  014D  0083               	movwf	3
  1813  014E  0EDE               	swapf	btemp,f
  1814  014F  0E5E               	swapf	btemp,w
  1815  0150  0009               	retfie
  1816  0151                     __end_of_ISR:
  1817  005E                     btemp	set	94	;btemp
  1818  005E                     wtemp0	set	94
  1819                           
  1820                           	psect	intentry
  1821  0004                     __pintentry:	
  1822                           ;incstack = 0
  1823                           ; Regs used in _ISR: [wreg+status,2]
  1824                           
  1825  0004                     interrupt_function:
  1826  005E                     saved_w	set	btemp
  1827  0004  00DE               	movwf	btemp
  1828  0005  0E03               	swapf	3,w
  1829  0006  1283               	bcf	3,5	;RP0=0, select bank0
  1830  0007  00A0               	movwf	??_ISR
  1831  0008  080A               	movf	10,w
  1832  0009  00A1               	movwf	??_ISR+1
  1833  000A  2925               	ljmp	_ISR
  1834                           
  1835                           	psect	config
  1836                           
  1837                           ;Config register CONFIG @ 0x2007
  1838                           ;	Oscillator Selection bits
  1839                           ;	FOSC = INTRCIO, INTOSC oscillator: I/O function on GP4/OSC2/CLKOUT pin, I/O function o
      +                          n GP5/OSC1/CLKIN
  1840                           ;	Watchdog Timer Enable bit
  1841                           ;	WDTE = OFF, WDT disabled
  1842                           ;	Power-Up Timer Enable bit
  1843                           ;	PWRTE = OFF, PWRT disabled
  1844                           ;	GP3/MCLR pin function select
  1845                           ;	MCLRE = ON, GP3/MCLR pin function is MCLR
  1846                           ;	Brown-out Detect Enable bit
  1847                           ;	BOREN = ON, BOD enabled
  1848                           ;	Code Protection bit
  1849                           ;	CP = OFF, Program Memory code protection is disabled
  1850                           ;	Data Code Protection bit
  1851                           ;	CPD = OFF, Data memory code protection is disabled
  1852  2007                     	org	8199
  1853  2007  31F4               	dw	12788

Data Sizes:
    Strings     0
    Constant    0
    Data        0
    BSS         6
    Persistent  0
    Stack       0

Auto Spaces:
    Space          Size  Autos    Used
    COMMON            0      0       0
    BANK0            62      9      15

Pointer List with Targets:

    None.

Critical Paths under _main in COMMON

    None.

Critical Paths under _ISR in COMMON

    None.

Critical Paths under _main in BANK0

    _main->_Pin6VoltageControl
    _Pin7ThermoControl->_ThreeLongOneShort
    _Pin7ThermoControl->_ThreeShort
    _ThreeShort->_ShortSound
    _ThreeLongOneShort->_LongSound
    _ThreeLongOneShort->_ShortSound
    _Pin6VoltageControl->_TwoShortOneLong
    _Pin6VoltageControl->_TwoShortTwoLong
    _TwoShortTwoLong->_LongSound
    _TwoShortTwoLong->_ShortSound
    _TwoShortOneLong->_LongSound
    _TwoShortOneLong->_ShortSound

Critical Paths under _ISR in BANK0

    None.

Call Graph Tables:

 ---------------------------------------------------------------------------------
 (Depth) Function   	        Calls       Base Space   Used Autos Params    Refs
 ---------------------------------------------------------------------------------
 (0) _main                                                 0     0      0       0
                         _InitTimer0
                            _Init_uC
                 _Pin6VoltageControl
                  _Pin7ThermoControl
 ---------------------------------------------------------------------------------
 (1) _Pin7ThermoControl                                    0     0      0       0
                        _MeasureTemp
                  _ThreeLongOneShort
                         _ThreeShort
 ---------------------------------------------------------------------------------
 (2) _ThreeShort                                           3     3      0       0
                                              4 BANK0      3     3      0
                         _ShortSound
 ---------------------------------------------------------------------------------
 (2) _ThreeLongOneShort                                    3     3      0       0
                                              4 BANK0      3     3      0
                          _LongSound
                         _ShortSound
 ---------------------------------------------------------------------------------
 (2) _MeasureTemp                                          2     2      0       0
                                              2 BANK0      2     2      0
 ---------------------------------------------------------------------------------
 (1) _Pin6VoltageControl                                   2     2      0       0
                                              7 BANK0      2     2      0
                    _TwoShortOneLong
                    _TwoShortTwoLong
 ---------------------------------------------------------------------------------
 (2) _TwoShortTwoLong                                      3     3      0       0
                                              4 BANK0      3     3      0
                          _LongSound
                         _ShortSound
 ---------------------------------------------------------------------------------
 (2) _TwoShortOneLong                                      3     3      0       0
                                              4 BANK0      3     3      0
                          _LongSound
                         _ShortSound
 ---------------------------------------------------------------------------------
 (3) _ShortSound                                           2     2      0       0
                                              2 BANK0      2     2      0
 ---------------------------------------------------------------------------------
 (3) _LongSound                                            2     2      0       0
                                              2 BANK0      2     2      0
 ---------------------------------------------------------------------------------
 (1) _Init_uC                                              0     0      0       0
 ---------------------------------------------------------------------------------
 (1) _InitTimer0                                           1     1      0       0
                                              2 BANK0      1     1      0
 ---------------------------------------------------------------------------------
 Estimated maximum stack depth 3
 ---------------------------------------------------------------------------------
 (Depth) Function   	        Calls       Base Space   Used Autos Params    Refs
 ---------------------------------------------------------------------------------
 (4) _ISR                                                  2     2      0       0
                                              0 BANK0      2     2      0
 ---------------------------------------------------------------------------------
 Estimated maximum stack depth 4
 ---------------------------------------------------------------------------------

 Call Graph Graphs:

 _main (ROOT)
   _InitTimer0
   _Init_uC
   _Pin6VoltageControl
     _TwoShortOneLong
       _LongSound
       _ShortSound
     _TwoShortTwoLong
       _LongSound
       _ShortSound
   _Pin7ThermoControl
     _MeasureTemp
     _ThreeLongOneShort
       _LongSound
       _ShortSound
     _ThreeShort
       _ShortSound

 _ISR (ROOT)

 Address spaces:
Name               Size   Autos  Total    Cost      Usage
BITCOMMON            0      0       0       0        0.0%
EEDATA              80      0       0       0        0.0%
NULL                 0      0       0       0        0.0%
CODE                 0      0       0       0        0.0%
BITSFR0              0      0       0       1        0.0%
SFR0                 0      0       0       1        0.0%
COMMON               0      0       0       1        0.0%
BITSFR1              0      0       0       2        0.0%
SFR1                 0      0       0       2        0.0%
STACK                0      0       0       2        0.0%
BITBANK0            3E      0       0       3        0.0%
BANK0               3E      9       F       4       24.2%
ABS                  0      0       F       5        0.0%
DATA                 0      0       F       6        0.0%


Microchip Technology PIC Macro Assembler V2.36 build 20220127204148 
Symbol Table                                                                                   Thu Aug 03 19:37:15 2023

                        l70 00CE                          l67 018F                          l91 00BC  
                        l78 0124                          l94 015F                          l97 0172  
                        l89 00B5                          _GO 00F9                          u50 0163  
                        u51 0162                          u60 00D2                          u61 00D1  
                        u70 00EF                          u71 00EE                          u80 00FD  
                        u81 00FC                          u90 010F                          u91 010E  
                        u75 00EB                _pulsePerTakt 0029                          u85 00F9  
                        u95 010B                         l123 020D                         l152 01BB  
                       l161 01E1                         l155 01A5                         l173 01CE  
                       l158 0205                         l167 01F3                         l931 01A8  
                       l933 01B0                         l941 01F4                         l935 0190  
                       l943 01F7                         l951 0153                         l929 01A6  
                       l937 0192                         l945 01CF                         l953 0154  
                       l971 0173                         l939 019A                         l947 01D3  
                       l955 0155                         l963 01BC                         l981 017D  
                       l973 0176                         l957 015D                         l949 0151  
                       l965 01C0                         _GP2 002A                         l991 0187  
                       l983 017F                         l975 0178                         l959 0163  
                       l967 01E2                         _GP4 002C                         l993 0188  
                       l985 0181                         l977 0179                         l969 01E5  
                       _GP5 002D                         l995 0189                         l987 0183  
                       l979 017B                         _GIE 005F                         l997 018B  
                       l989 0185                         l999 018C                         u100 0121  
                       u101 0120                         u105 011D                         u300 009F  
                       u301 009E                         u310 00AD                         u230 0024  
                       u311 00AC                         u231 0023                         u240 0038  
                       u305 009B                         u241 0037                         u250 0046  
                       u315 00A9                         u251 0045                         u235 0020  
                       u260 0059                         u261 0058                         u245 0034  
                       u270 0067                         u407 0196                         u327 01EC  
                       u271 0066                         u255 0042                         u280 007C  
                       u417 01A0                         u337 01C7                         u281 007B  
                       u265 0055                         u290 008A                         u427 01AC  
                       u347 0159                         u291 0089                         u275 0063  
                       _ISR 0125                         u437 01B6                         u357 0167  
                       u285 0078                         u367 00C7                         u295 0086  
                       u377 00D6                         u387 01DA                         u397 01FE  
         ??_TwoShortOneLong 0024                        ?_ISR 0020           ??_TwoShortTwoLong 0024  
                      l1001 018E                        l1011 00C2                        l1003 00BD  
                      l1021 00EF                        l1013 00C3                        l1005 00BF  
                      l1031 0113                        l1023 00FD                        l1015 00CC  
                      l1007 00C0                        l1033 0121                        l1025 0101  
                      l1017 00D2                        l1009 00C1                        l1121 0024  
                      l1035 0123                        l1027 010F                        l1019 00E2  
                      l1131 0046                        l1123 0026                        l1029 0111  
                      l1141 0069                        l1133 0048                        l1125 0028  
                      l1117 0015                        l1151 0091                        l1143 006E  
                      l1135 004B                        l1127 002A                        l1119 0016  
                      l1161 00B7                        l1153 009F                        l1145 007C  
                      l1137 0059                        l1129 0038                        l1155 00AD  
                      l1147 008A                        l1139 0067                        l1171 0212  
                      l1085 0206                        l1157 00AF                        l1149 008C  
                      l1165 020E                        l1087 020C                        l1159 00B3  
                      l1167 0210                        l1169 0211                        _ADIF 0066  
                      _ADFM 00FF                        _ADON 00F8                        _CHS0 00FA  
                      _CHS1 00FB                        _T0IE 005D                        _T0IF 005A  
                      _GPIO 0005                        _VCFG 00FE                        _TMR0 0001  
                      _main 020E                        btemp 005E                        start 000B  
             ??_MeasureTemp 0022             __end_of_Init_uC 0190                       ??_ISR 0020  
                     ?_main 0020                       _CMCON 0019                       _ANSEL 009F  
                     i1l113 013D                       i1l114 013E                       i1l116 014A  
                     u20_20 0131                       u20_21 0130                       u21_20 013B  
                     u21_21 013A                       u21_25 0137                       u22_20 0148  
                     u22_21 0147                       _VRCON 0099                       pclath 000A  
                     status 0003                       wtemp0 005E  __end_of_Pin6VoltageControl 0125  
           __initialization 000C                  _InitTimer0 0206                __end_of_main 0215  
       __end_of_MeasureTemp 0173                      ??_main 0000                      _ADCON0 001F  
                    _ADRESH 001E                      _ADRESL 009E                      i1l1091 012D  
                    i1l1093 0131                      i1l1095 013B                      i1l1097 013F  
                    i1l1089 0125                      i1l1099 0148                      _TRISIO 0085  
                 ??_Init_uC 0000                  _ThreeShort 01E2                  _ShortSound 0190  
                    saved_w 005E     __end_of__initialization 0013                 _MeasureTemp 0151  
               ?_InitTimer0 0020              __pcstackCOMMON 0000             _TwoShortOneLong 01F4  
           _TwoShortTwoLong 01CF           __end_of_LongSound 01BC                  __pbssBANK0 0029  
                __pmaintext 020E                  __pintentry 0004                 ?_ThreeShort 0020  
               ?_ShortSound 0020                     _TRISIO0 0428                     _TRISIO1 0429  
                   _TRISIO2 042A                     _TRISIO4 042C                     _TRISIO5 042D  
   __end_of_TwoShortOneLong 0206                     _Init_uC 0173           _Pin7ThermoControl 0015  
   __end_of_TwoShortTwoLong 01E2          ?_Pin7ThermoControl 0020         ??_Pin7ThermoControl 0000  
                   __ptext1 0015                     __ptext2 01E2                     __ptext3 01BC  
                   __ptext4 0151                     __ptext5 00BD                     __ptext6 01CF  
                   __ptext7 01F4                     __ptext8 0190                     __ptext9 01A6  
        _Pin6VoltageControl 00BD         ?_Pin6VoltageControl 0020        end_of_initialization 0013  
 __end_of_Pin7ThermoControl 00BD        ??_Pin6VoltageControl 0027            ?_TwoShortOneLong 0020  
              ?_MeasureTemp 0020                ??_InitTimer0 0022            ?_TwoShortTwoLong 0020  
       start_initialization 000C                 __end_of_ISR 0151          __end_of_InitTimer0 020E  
                 _LongSound 01A6                ??_ThreeShort 0024                ??_ShortSound 0022  
                 ___latbits 0000               __pcstackBANK0 0020                  ?_LongSound 0020  
        __end_of_ThreeShort 01F4                    ?_Init_uC 0020          __end_of_ShortSound 01A6  
         interrupt_function 0004           _ThreeLongOneShort 01BC                 ??_LongSound 0022  
        ?_ThreeLongOneShort 0020         ??_ThreeLongOneShort 0024                    _adcValue 002D  
 __end_of_ThreeLongOneShort 01CF                    __ptext10 0173                    __ptext11 0206  
                  __ptext12 0125                    _pwmValue 002B                  _INTCONbits 000B  
                  intlevel1 0000                  _OPTION_REG 0081  
