

Microchip MPLAB XC8 Assembler V2.36 build 20220127204148 
                                                                                               Mon Oct 30 19:57:44 2023

Microchip MPLAB XC8 C Compiler v2.36 (Free license) build 20220127204148 Og1 
     1                           	processor	12F675
     2                           	pagewidth 120
     3                           	opt	flic
     4                           	psect	cinit,global,class=CODE,merge=1,delta=2
     5                           	psect	bssBANK0,global,class=BANK0,space=1,delta=1,noexec
     6                           	psect	cstackCOMMON,global,class=COMMON,space=1,delta=1,noexec
     7                           	psect	cstackBANK0,global,class=BANK0,space=1,delta=1,noexec
     8                           	psect	maintext,global,class=CODE,split=1,delta=2
     9                           	psect	text1,local,class=CODE,merge=1,delta=2
    10                           	psect	text2,local,class=CODE,merge=1,delta=2
    11                           	psect	text3,local,class=CODE,merge=1,delta=2
    12                           	psect	text4,local,class=CODE,merge=1,delta=2
    13                           	psect	text5,local,class=CODE,merge=1,delta=2
    14                           	psect	text6,local,class=CODE,merge=1,delta=2
    15                           	psect	text7,local,class=CODE,merge=1,delta=2
    16                           	psect	text8,local,class=CODE,merge=1,delta=2
    17                           	psect	text9,local,class=CODE,merge=1,delta=2
    18                           	psect	text10,local,class=CODE,merge=1,delta=2
    19                           	psect	text11,local,class=CODE,merge=1,delta=2
    20                           	psect	intentry,global,class=CODE,delta=2
    21                           	dabs	1,0x5E,2
    22  0000                     
    23                           ; Version 2.20
    24                           ; Generated 29/04/2020 GMT
    25                           ; 
    26                           ; Copyright © 2020, Microchip Technology Inc. and its subsidiaries ("Microchip")
    27                           ; All rights reserved.
    28                           ; 
    29                           ; This software is developed by Microchip Technology Inc. and its subsidiaries ("Microch
      +                          ip").
    30                           ; 
    31                           ; Redistribution and use in source and binary forms, with or without modification, are
    32                           ; permitted provided that the following conditions are met:
    33                           ; 
    34                           ;     1. Redistributions of source code must retain the above copyright notice, this lis
      +                          t of
    35                           ;        conditions and the following disclaimer.
    36                           ; 
    37                           ;     2. Redistributions in binary form must reproduce the above copyright notice, this 
      +                          list
    38                           ;        of conditions and the following disclaimer in the documentation and/or other
    39                           ;        materials provided with the distribution.
    40                           ; 
    41                           ;     3. Microchip's name may not be used to endorse or promote products derived from th
      +                          is
    42                           ;        software without specific prior written permission.
    43                           ; 
    44                           ; THIS SOFTWARE IS PROVIDED BY MICROCHIP "AS IS" AND ANY EXPRESS OR IMPLIED WARRANTIES,
    45                           ; INCLUDING, BUT NOT LIMITED TO, THE IMPLIED WARRANTIES OF MERCHANTABILITY AND FITNESS F
      +                          OR
    46                           ; PURPOSE ARE DISCLAIMED.  IN NO EVENT SHALL MICROCHIP BE LIABLE FOR ANY DIRECT, INDIREC
      +                          T,
    47                           ; INCIDENTAL, SPECIAL, EXEMPLARY, OR CONSEQUENTIAL DAMAGES (INCLUDING BUT NOT LIMITED TO
    48                           ; PROCUREMENT OF SUBSTITUTE GOODS OR SERVICES; LOSS OF USE, DATA OR PROFITS; OR BUSINESS
    49                           ; INTERRUPTION) HOWSOEVER CAUSED AND ON ANY THEORY OF LIABILITY, WHETHER IN CONTRACT, ST
      +                          RICT
    50                           ; LIABILITY, OR TORT (INCLUDING NEGLIGENCE OR OTHERWISE) ARISING IN ANY WAY OUT OF THE U
      +                          SE OF
    51                           ; THIS SOFTWARE, EVEN IF ADVISED OF THE POSSIBILITY OF SUCH DAMAGE.
    52                           ; 
    53                           ; 
    54                           ; Code-generator required, PIC12F675 Definitions
    55                           ; 
    56                           ; SFR Addresses
    57  0000                     	;# 
    58  0001                     	;# 
    59  0002                     	;# 
    60  0003                     	;# 
    61  0004                     	;# 
    62  0005                     	;# 
    63  000A                     	;# 
    64  000B                     	;# 
    65  000C                     	;# 
    66  000E                     	;# 
    67  000E                     	;# 
    68  000F                     	;# 
    69  0010                     	;# 
    70  0019                     	;# 
    71  001E                     	;# 
    72  001F                     	;# 
    73  0081                     	;# 
    74  0085                     	;# 
    75  008C                     	;# 
    76  008E                     	;# 
    77  0090                     	;# 
    78  0095                     	;# 
    79  0096                     	;# 
    80  0096                     	;# 
    81  0099                     	;# 
    82  009A                     	;# 
    83  009A                     	;# 
    84  009B                     	;# 
    85  009C                     	;# 
    86  009D                     	;# 
    87  009E                     	;# 
    88  009F                     	;# 
    89  0000                     	;# 
    90  0001                     	;# 
    91  0002                     	;# 
    92  0003                     	;# 
    93  0004                     	;# 
    94  0005                     	;# 
    95  000A                     	;# 
    96  000B                     	;# 
    97  000C                     	;# 
    98  000E                     	;# 
    99  000E                     	;# 
   100  000F                     	;# 
   101  0010                     	;# 
   102  0019                     	;# 
   103  001E                     	;# 
   104  001F                     	;# 
   105  0081                     	;# 
   106  0085                     	;# 
   107  008C                     	;# 
   108  008E                     	;# 
   109  0090                     	;# 
   110  0095                     	;# 
   111  0096                     	;# 
   112  0096                     	;# 
   113  0099                     	;# 
   114  009A                     	;# 
   115  009A                     	;# 
   116  009B                     	;# 
   117  009C                     	;# 
   118  009D                     	;# 
   119  009E                     	;# 
   120  009F                     	;# 
   121  0000                     	;# 
   122  0001                     	;# 
   123  0002                     	;# 
   124  0003                     	;# 
   125  0004                     	;# 
   126  0005                     	;# 
   127  000A                     	;# 
   128  000B                     	;# 
   129  000C                     	;# 
   130  000E                     	;# 
   131  000E                     	;# 
   132  000F                     	;# 
   133  0010                     	;# 
   134  0019                     	;# 
   135  001E                     	;# 
   136  001F                     	;# 
   137  0081                     	;# 
   138  0085                     	;# 
   139  008C                     	;# 
   140  008E                     	;# 
   141  0090                     	;# 
   142  0095                     	;# 
   143  0096                     	;# 
   144  0096                     	;# 
   145  0099                     	;# 
   146  009A                     	;# 
   147  009A                     	;# 
   148  009B                     	;# 
   149  009C                     	;# 
   150  009D                     	;# 
   151  009E                     	;# 
   152  009F                     	;# 
   153  0000                     	;# 
   154  0001                     	;# 
   155  0002                     	;# 
   156  0003                     	;# 
   157  0004                     	;# 
   158  0005                     	;# 
   159  000A                     	;# 
   160  000B                     	;# 
   161  000C                     	;# 
   162  000E                     	;# 
   163  000E                     	;# 
   164  000F                     	;# 
   165  0010                     	;# 
   166  0019                     	;# 
   167  001E                     	;# 
   168  001F                     	;# 
   169  0081                     	;# 
   170  0085                     	;# 
   171  008C                     	;# 
   172  008E                     	;# 
   173  0090                     	;# 
   174  0095                     	;# 
   175  0096                     	;# 
   176  0096                     	;# 
   177  0099                     	;# 
   178  009A                     	;# 
   179  009A                     	;# 
   180  009B                     	;# 
   181  009C                     	;# 
   182  009D                     	;# 
   183  009E                     	;# 
   184  009F                     	;# 
   185  0000                     nosup@@$_$_CONFIG	set	0	;# 
   186  0000                     	;# 
   187  0001                     	;# 
   188  0002                     	;# 
   189  0003                     	;# 
   190  0004                     	;# 
   191  0005                     	;# 
   192  000A                     	;# 
   193  000B                     	;# 
   194  000C                     	;# 
   195  000E                     	;# 
   196  000E                     	;# 
   197  000F                     	;# 
   198  0010                     	;# 
   199  0019                     	;# 
   200  001E                     	;# 
   201  001F                     	;# 
   202  0081                     	;# 
   203  0085                     	;# 
   204  008C                     	;# 
   205  008E                     	;# 
   206  0090                     	;# 
   207  0095                     	;# 
   208  0096                     	;# 
   209  0096                     	;# 
   210  0099                     	;# 
   211  009A                     	;# 
   212  009A                     	;# 
   213  009B                     	;# 
   214  009C                     	;# 
   215  009D                     	;# 
   216  009E                     	;# 
   217  009F                     	;# 
   218  0000                     	;# 
   219  0001                     	;# 
   220  0002                     	;# 
   221  0003                     	;# 
   222  0004                     	;# 
   223  0005                     	;# 
   224  000A                     	;# 
   225  000B                     	;# 
   226  000C                     	;# 
   227  000E                     	;# 
   228  000E                     	;# 
   229  000F                     	;# 
   230  0010                     	;# 
   231  0019                     	;# 
   232  001E                     	;# 
   233  001F                     	;# 
   234  0081                     	;# 
   235  0085                     	;# 
   236  008C                     	;# 
   237  008E                     	;# 
   238  0090                     	;# 
   239  0095                     	;# 
   240  0096                     	;# 
   241  0096                     	;# 
   242  0099                     	;# 
   243  009A                     	;# 
   244  009A                     	;# 
   245  009B                     	;# 
   246  009C                     	;# 
   247  009D                     	;# 
   248  009E                     	;# 
   249  009F                     	;# 
   250  000B                     _INTCONbits	set	11
   251  0001                     _TMR0	set	1
   252  001E                     _ADRESH	set	30
   253  001F                     _ADCON0	set	31
   254  0005                     _GPIO	set	5
   255  0019                     _CMCON	set	25
   256  005D                     _T0IE	set	93
   257  005A                     _T0IF	set	90
   258  00FA                     _CHS0	set	250
   259  00FB                     _CHS1	set	251
   260  0066                     _ADIF	set	102
   261  00F9                     _GO	set	249
   262  00FF                     _ADFM	set	255
   263  005F                     _GIE	set	95
   264  002C                     _GP4	set	44
   265  002D                     _GP5	set	45
   266  002A                     _GP2	set	42
   267  00FE                     _VCFG	set	254
   268  00F8                     _ADON	set	248
   269  0081                     _OPTION_REG	set	129
   270  009E                     _ADRESL	set	158
   271  009F                     _ANSEL	set	159
   272  0085                     _TRISIO	set	133
   273  0099                     _VRCON	set	153
   274  042C                     _TRISIO4	set	1068
   275  042D                     _TRISIO5	set	1069
   276  042A                     _TRISIO2	set	1066
   277  0429                     _TRISIO1	set	1065
   278  0428                     _TRISIO0	set	1064
   279                           
   280                           	psect	cinit
   281  000C                     start_initialization:	
   282                           ; #config settings
   283                           
   284  000C                     __initialization:
   285                           
   286                           ; Clear objects allocated to BANK0
   287  000C  1283               	bcf	3,5	;RP0=0, select bank0
   288  000D  01A9               	clrf	__pbssBANK0& (0+127)
   289  000E  01AA               	clrf	(__pbssBANK0+1)& (0+127)
   290  000F  01AB               	clrf	(__pbssBANK0+2)& (0+127)
   291  0010  01AC               	clrf	(__pbssBANK0+3)& (0+127)
   292  0011                     end_of_initialization:	
   293                           ;End of C runtime variable initialization code
   294                           
   295  0011                     __end_of__initialization:
   296  0011  0183               	clrf	3
   297  0012  29C3               	ljmp	_main	;jump to C main() function
   298                           
   299                           	psect	bssBANK0
   300  0029                     __pbssBANK0:
   301  0029                     _adcValue:
   302  0029                     	ds	2
   303  002B                     _highLevelTime:
   304  002B                     	ds	1
   305  002C                     _pwmValue:
   306  002C                     	ds	1
   307                           
   308                           	psect	cstackCOMMON
   309  0000                     __pcstackCOMMON:
   310  0000                     ??_Pin6VoltageControl:
   311  0000                     ??_main:	
   312                           ; 1 bytes @ 0x0
   313                           
   314                           
   315                           	psect	cstackBANK0
   316  0020                     __pcstackBANK0:	
   317                           ; 1 bytes @ 0x0
   318                           
   319  0020                     ?_ThreeLongOneShort:
   320  0020                     ?_ThreeShort:	
   321                           ; 1 bytes @ 0x0
   322                           
   323  0020                     ?_Init_uC:	
   324                           ; 1 bytes @ 0x0
   325                           
   326  0020                     ?_Pin6VoltageControl:	
   327                           ; 1 bytes @ 0x0
   328                           
   329  0020                     ?_Pin7ThermoControl:	
   330                           ; 1 bytes @ 0x0
   331                           
   332  0020                     ?_ISR:	
   333                           ; 1 bytes @ 0x0
   334                           
   335  0020                     ??_ISR:	
   336                           ; 1 bytes @ 0x0
   337                           
   338  0020                     ?_InitTimer0:	
   339                           ; 1 bytes @ 0x0
   340                           
   341  0020                     ?_main:	
   342                           ; 1 bytes @ 0x0
   343                           
   344  0020                     ?_LongSound:	
   345                           ; 1 bytes @ 0x0
   346                           
   347  0020                     ?_ShortSound:	
   348                           ; 1 bytes @ 0x0
   349                           
   350  0020                     ?_MeasureVoltage:	
   351                           ; 1 bytes @ 0x0
   352                           
   353  0020                     ?_MeasureTemp:	
   354                           ; 2 bytes @ 0x0
   355                           
   356                           
   357                           ; 2 bytes @ 0x0
   358  0020                     	ds	3
   359  0023                     ??_MeasureVoltage:
   360  0023                     ??_MeasureTemp:	
   361                           ; 1 bytes @ 0x3
   362                           
   363  0023                     ??_InitTimer0:	
   364                           ; 1 bytes @ 0x3
   365                           
   366  0023                     ??_LongSound:	
   367                           ; 1 bytes @ 0x3
   368                           
   369  0023                     ??_ShortSound:	
   370                           ; 1 bytes @ 0x3
   371                           
   372                           
   373                           ; 1 bytes @ 0x3
   374  0023                     	ds	1
   375  0024                     ??_Init_uC:
   376                           
   377                           ; 1 bytes @ 0x4
   378  0024                     	ds	1
   379  0025                     ??_ThreeLongOneShort:
   380  0025                     ??_ThreeShort:	
   381                           ; 1 bytes @ 0x5
   382                           
   383                           
   384                           ; 1 bytes @ 0x5
   385  0025                     	ds	3
   386  0028                     ??_Pin7ThermoControl:
   387                           
   388                           ; 1 bytes @ 0x8
   389  0028                     	ds	1
   390                           
   391                           	psect	maintext
   392  01C3                     __pmaintext:	
   393 ;;
   394 ;;Main: autosize = 0, tempsize = 0, incstack = 0, save=0
   395 ;;
   396 ;; *************** function _main *****************
   397 ;; Defined at:
   398 ;;		line 60 in file "main.c"
   399 ;; Parameters:    Size  Location     Type
   400 ;;		None
   401 ;; Auto vars:     Size  Location     Type
   402 ;;		None
   403 ;; Return value:  Size  Location     Type
   404 ;;                  1    wreg      void 
   405 ;; Registers used:
   406 ;;		wreg, status,2, status,0, pclath, cstack
   407 ;; Tracked objects:
   408 ;;		On entry : B00/0
   409 ;;		On exit  : 0/0
   410 ;;		Unchanged: 0/0
   411 ;; Data sizes:     COMMON   BANK0
   412 ;;      Params:         0       0
   413 ;;      Locals:         0       0
   414 ;;      Temps:          0       0
   415 ;;      Totals:         0       0
   416 ;;Total ram usage:        0 bytes
   417 ;; Hardware stack levels required when called: 4
   418 ;; This function calls:
   419 ;;		_InitTimer0
   420 ;;		_Init_uC
   421 ;;		_Pin6VoltageControl
   422 ;;		_Pin7ThermoControl
   423 ;; This function is called by:
   424 ;;		Startup code after reset
   425 ;; This function uses a non-reentrant model
   426 ;;
   427                           
   428  01C3                     _main:	
   429                           ;psect for function _main
   430                           
   431  01C3                     l1131:	
   432                           ;incstack = 0
   433                           ; Regs used in _main: [wreg+status,2+status,0+pclath+cstack]
   434                           
   435                           
   436                           ;main.c: 62:     (INTCONbits.GIE = 1);
   437  01C3  178B               	bsf	11,7	;volatile
   438  01C4                     l1133:
   439                           
   440                           ;main.c: 63:     Init_uC();
   441  01C4  2099               	fcall	_Init_uC
   442                           
   443                           ;main.c: 64:     InitTimer0();
   444  01C5  21BB               	fcall	_InitTimer0
   445  01C6                     l146:	
   446                           ;main.c: 65:  while(1)
   447                           
   448                           
   449                           ;main.c: 66:  {;main.c: 67:       Pin6VoltageControl();
   450  01C6  2151               	fcall	_Pin6VoltageControl
   451                           
   452                           ;main.c: 68:       Pin7ThermoControl();
   453  01C7  2013               	fcall	_Pin7ThermoControl
   454  01C8  29C6               	goto	l146
   455  01C9  280B               	ljmp	start
   456  01CA                     __end_of_main:
   457                           
   458                           	psect	text1
   459  0013                     __ptext1:	
   460 ;; *************** function _Pin7ThermoControl *****************
   461 ;; Defined at:
   462 ;;		line 83 in file "ADC.c"
   463 ;; Parameters:    Size  Location     Type
   464 ;;		None
   465 ;; Auto vars:     Size  Location     Type
   466 ;;		None
   467 ;; Return value:  Size  Location     Type
   468 ;;                  1    wreg      void 
   469 ;; Registers used:
   470 ;;		wreg, status,2, status,0, pclath, cstack
   471 ;; Tracked objects:
   472 ;;		On entry : 0/0
   473 ;;		On exit  : 0/0
   474 ;;		Unchanged: 0/0
   475 ;; Data sizes:     COMMON   BANK0
   476 ;;      Params:         0       0
   477 ;;      Locals:         0       0
   478 ;;      Temps:          0       1
   479 ;;      Totals:         0       1
   480 ;;Total ram usage:        1 bytes
   481 ;; Hardware stack levels used: 1
   482 ;; Hardware stack levels required when called: 3
   483 ;; This function calls:
   484 ;;		_MeasureTemp
   485 ;;		_ThreeLongOneShort
   486 ;;		_ThreeShort
   487 ;; This function is called by:
   488 ;;		_main
   489 ;; This function uses a non-reentrant model
   490 ;;
   491                           
   492  0013                     _Pin7ThermoControl:	
   493                           ;psect for function _Pin7ThermoControl
   494                           
   495  0013                     l1067:	
   496                           ;incstack = 0
   497                           ; Regs used in _Pin7ThermoControl: [wreg+status,2+status,0+pclath+cstack]
   498                           
   499                           
   500                           ;ADC.c: 85:        MeasureTemp();
   501  0013  20EB               	fcall	_MeasureTemp
   502  0014                     l1069:
   503                           
   504                           ;ADC.c: 87:              if (adcValue < 200)
   505  0014  3000               	movlw	0
   506  0015  1283               	bcf	3,5	;RP0=0, select bank0
   507  0016  022A               	subwf	_adcValue+1,w	;volatile
   508  0017  30C8               	movlw	200
   509  0018  1903               	skipnz
   510  0019  0229               	subwf	_adcValue,w	;volatile
   511  001A  1803               	skipnc
   512  001B  281D               	goto	u271
   513  001C  281E               	goto	u270
   514  001D                     u271:
   515  001D  282D               	goto	l1081
   516  001E                     u270:
   517  001E                     l1071:
   518                           
   519                           ;ADC.c: 88:          {;ADC.c: 89:         GP5 = 1;
   520  001E  1685               	bsf	5,5	;volatile
   521  001F                     l1073:
   522                           
   523                           ;ADC.c: 90:               pwmValue = 0;
   524  001F  01AC               	clrf	_pwmValue	;volatile
   525  0020                     l1075:
   526                           
   527                           ;ADC.c: 92:         MeasureTemp();
   528  0020  20EB               	fcall	_MeasureTemp
   529  0021                     l1077:
   530                           
   531                           ;ADC.c: 93:         ThreeLongOneShort();
   532  0021  2196               	fcall	_ThreeLongOneShort
   533  0022                     l1079:
   534                           
   535                           ;ADC.c: 94:        }
   536  0022  3000               	movlw	0
   537  0023  1283               	bcf	3,5	;RP0=0, select bank0
   538  0024  022A               	subwf	_adcValue+1,w	;volatile
   539  0025  30C8               	movlw	200
   540  0026  1903               	skipnz
   541  0027  0229               	subwf	_adcValue,w	;volatile
   542  0028  1C03               	skipc
   543  0029  282B               	goto	u281
   544  002A  282C               	goto	u280
   545  002B                     u281:
   546  002B  2820               	goto	l1075
   547  002C                     u280:
   548  002C  2898               	goto	l93
   549  002D                     l1081:
   550  002D  3000               	movlw	0
   551  002E  022A               	subwf	_adcValue+1,w	;volatile
   552  002F  30C8               	movlw	200
   553  0030  1903               	skipnz
   554  0031  0229               	subwf	_adcValue,w	;volatile
   555  0032  1C03               	skipc
   556  0033  2835               	goto	u291
   557  0034  2836               	goto	u290
   558  0035                     u291:
   559  0035  2841               	goto	l1087
   560  0036                     u290:
   561  0036                     l1083:
   562  0036  3003               	movlw	3
   563  0037  022A               	subwf	_adcValue+1,w	;volatile
   564  0038  3070               	movlw	112
   565  0039  1903               	skipnz
   566  003A  0229               	subwf	_adcValue,w	;volatile
   567  003B  1803               	skipnc
   568  003C  283E               	goto	u301
   569  003D  283F               	goto	u300
   570  003E                     u301:
   571  003E  2841               	goto	l1087
   572  003F                     u300:
   573  003F                     l1085:
   574                           
   575                           ;ADC.c: 101:                         pwmValue = 0;
   576  003F  01AC               	clrf	_pwmValue	;volatile
   577                           
   578                           ;ADC.c: 102:                        }
   579  0040  2898               	goto	l93
   580  0041                     l1087:
   581  0041  3003               	movlw	3
   582  0042  022A               	subwf	_adcValue+1,w	;volatile
   583  0043  3070               	movlw	112
   584  0044  1903               	skipnz
   585  0045  0229               	subwf	_adcValue,w	;volatile
   586  0046  1C03               	skipc
   587  0047  2849               	goto	u311
   588  0048  284A               	goto	u310
   589  0049                     u311:
   590  0049  2858               	goto	l1093
   591  004A                     u310:
   592  004A                     l1089:
   593  004A  3003               	movlw	3
   594  004B  022A               	subwf	_adcValue+1,w	;volatile
   595  004C  308E               	movlw	142
   596  004D  1903               	skipnz
   597  004E  0229               	subwf	_adcValue,w	;volatile
   598  004F  1803               	skipnc
   599  0050  2852               	goto	u321
   600  0051  2853               	goto	u320
   601  0052                     u321:
   602  0052  2858               	goto	l1093
   603  0053                     u320:
   604  0053                     l1091:
   605                           
   606                           ;ADC.c: 105:                         pwmValue = 30;
   607  0053  301E               	movlw	30
   608  0054  00A8               	movwf	??_Pin7ThermoControl
   609  0055  0828               	movf	??_Pin7ThermoControl,w
   610  0056  00AC               	movwf	_pwmValue	;volatile
   611                           
   612                           ;ADC.c: 106:                        }
   613  0057  2898               	goto	l93
   614  0058                     l1093:
   615  0058  3003               	movlw	3
   616  0059  022A               	subwf	_adcValue+1,w	;volatile
   617  005A  308E               	movlw	142
   618  005B  1903               	skipnz
   619  005C  0229               	subwf	_adcValue,w	;volatile
   620  005D  1C03               	skipc
   621  005E  2860               	goto	u331
   622  005F  2861               	goto	u330
   623  0060                     u331:
   624  0060  286F               	goto	l1099
   625  0061                     u330:
   626  0061                     l1095:
   627  0061  3003               	movlw	3
   628  0062  022A               	subwf	_adcValue+1,w	;volatile
   629  0063  30AC               	movlw	172
   630  0064  1903               	skipnz
   631  0065  0229               	subwf	_adcValue,w	;volatile
   632  0066  1803               	skipnc
   633  0067  2869               	goto	u341
   634  0068  286A               	goto	u340
   635  0069                     u341:
   636  0069  286F               	goto	l1099
   637  006A                     u340:
   638  006A                     l1097:
   639                           
   640                           ;ADC.c: 109:                         pwmValue = 45;
   641  006A  302D               	movlw	45
   642  006B  00A8               	movwf	??_Pin7ThermoControl
   643  006C  0828               	movf	??_Pin7ThermoControl,w
   644  006D  00AC               	movwf	_pwmValue	;volatile
   645                           
   646                           ;ADC.c: 110:                        }
   647  006E  2898               	goto	l93
   648  006F                     l1099:
   649  006F  3003               	movlw	3
   650  0070  022A               	subwf	_adcValue+1,w	;volatile
   651  0071  30AC               	movlw	172
   652  0072  1903               	skipnz
   653  0073  0229               	subwf	_adcValue,w	;volatile
   654  0074  1C03               	skipc
   655  0075  2877               	goto	u351
   656  0076  2878               	goto	u350
   657  0077                     u351:
   658  0077  2887               	goto	l89
   659  0078                     u350:
   660  0078                     l1101:
   661  0078  3003               	movlw	3
   662  0079  022A               	subwf	_adcValue+1,w	;volatile
   663  007A  30CA               	movlw	202
   664  007B  1903               	skipnz
   665  007C  0229               	subwf	_adcValue,w	;volatile
   666  007D  1803               	skipnc
   667  007E  2880               	goto	u361
   668  007F  2881               	goto	u360
   669  0080                     u361:
   670  0080  2887               	goto	l89
   671  0081                     u360:
   672  0081                     l1103:
   673                           
   674                           ;ADC.c: 113:                         pwmValue = 55;
   675  0081  3037               	movlw	55
   676  0082  00A8               	movwf	??_Pin7ThermoControl
   677  0083  0828               	movf	??_Pin7ThermoControl,w
   678  0084  00AC               	movwf	_pwmValue	;volatile
   679  0085                     l1105:
   680                           
   681                           ;ADC.c: 114:                         ThreeShort();
   682  0085  21A9               	fcall	_ThreeShort
   683                           
   684                           ;ADC.c: 115:                        }
   685  0086  2898               	goto	l93
   686  0087                     l89:	
   687                           ;ADC.c: 116:              else {
   688                           
   689                           
   690                           ;ADC.c: 117:                  GP5 = 1;
   691  0087  1685               	bsf	5,5	;volatile
   692  0088                     l1107:
   693                           
   694                           ;ADC.c: 118:                         pwmValue = 85;
   695  0088  3055               	movlw	85
   696  0089  00A8               	movwf	??_Pin7ThermoControl
   697  008A  0828               	movf	??_Pin7ThermoControl,w
   698  008B  00AC               	movwf	_pwmValue	;volatile
   699  008C                     l1109:
   700                           
   701                           ;ADC.c: 120:                         MeasureTemp();
   702  008C  20EB               	fcall	_MeasureTemp
   703  008D                     l1111:
   704                           
   705                           ;ADC.c: 121:    ThreeShort();
   706  008D  21A9               	fcall	_ThreeShort
   707                           
   708                           ;ADC.c: 122:         }
   709  008E  3003               	movlw	3
   710  008F  1283               	bcf	3,5	;RP0=0, select bank0
   711  0090  022A               	subwf	_adcValue+1,w	;volatile
   712  0091  30CA               	movlw	202
   713  0092  1903               	skipnz
   714  0093  0229               	subwf	_adcValue,w	;volatile
   715  0094  1803               	skipnc
   716  0095  2897               	goto	u371
   717  0096  2898               	goto	u370
   718  0097                     u371:
   719  0097  288C               	goto	l1109
   720  0098                     u370:
   721  0098                     l93:
   722  0098  0008               	return
   723  0099                     __end_of_Pin7ThermoControl:
   724                           
   725                           	psect	text2
   726  01A9                     __ptext2:	
   727 ;; *************** function _ThreeShort *****************
   728 ;; Defined at:
   729 ;;		line 35 in file "sounds.c"
   730 ;; Parameters:    Size  Location     Type
   731 ;;		None
   732 ;; Auto vars:     Size  Location     Type
   733 ;;		None
   734 ;; Return value:  Size  Location     Type
   735 ;;                  1    wreg      void 
   736 ;; Registers used:
   737 ;;		wreg, status,2, status,0, pclath, cstack
   738 ;; Tracked objects:
   739 ;;		On entry : 0/0
   740 ;;		On exit  : 0/0
   741 ;;		Unchanged: 0/0
   742 ;; Data sizes:     COMMON   BANK0
   743 ;;      Params:         0       0
   744 ;;      Locals:         0       0
   745 ;;      Temps:          0       3
   746 ;;      Totals:         0       3
   747 ;;Total ram usage:        3 bytes
   748 ;; Hardware stack levels used: 1
   749 ;; Hardware stack levels required when called: 2
   750 ;; This function calls:
   751 ;;		_ShortSound
   752 ;; This function is called by:
   753 ;;		_Pin7ThermoControl
   754 ;; This function uses a non-reentrant model
   755 ;;
   756                           
   757  01A9                     _ThreeShort:	
   758                           ;psect for function _ThreeShort
   759                           
   760  01A9                     l1001:	
   761                           ;incstack = 0
   762                           ; Regs used in _ThreeShort: [wreg+status,2+status,0+pclath+cstack]
   763                           
   764                           
   765                           ;sounds.c: 36:    ShortSound();
   766  01A9  216A               	fcall	_ShortSound
   767                           
   768                           ;sounds.c: 37:    ShortSound();
   769  01AA  216A               	fcall	_ShortSound
   770                           
   771                           ;sounds.c: 38:    ShortSound();
   772  01AB  216A               	fcall	_ShortSound
   773  01AC                     l1003:
   774                           
   775                           ;sounds.c: 39:    _delay((unsigned long)((700)*(4000000/4000.0)));
   776  01AC  3004               	movlw	4
   777  01AD  1283               	bcf	3,5	;RP0=0, select bank0
   778  01AE  00A7               	movwf	??_ThreeShort+2
   779  01AF  308E               	movlw	142
   780  01B0  00A6               	movwf	??_ThreeShort+1
   781  01B1  3012               	movlw	18
   782  01B2  00A5               	movwf	??_ThreeShort
   783  01B3                     u417:
   784  01B3  0BA5               	decfsz	??_ThreeShort,f
   785  01B4  29B3               	goto	u417
   786  01B5  0BA6               	decfsz	??_ThreeShort+1,f
   787  01B6  29B3               	goto	u417
   788  01B7  0BA7               	decfsz	??_ThreeShort+2,f
   789  01B8  29B3               	goto	u417
   790  01B9  0000               	nop
   791  01BA                     l168:
   792  01BA  0008               	return
   793  01BB                     __end_of_ThreeShort:
   794                           
   795                           	psect	text3
   796  0196                     __ptext3:	
   797 ;; *************** function _ThreeLongOneShort *****************
   798 ;; Defined at:
   799 ;;		line 42 in file "sounds.c"
   800 ;; Parameters:    Size  Location     Type
   801 ;;		None
   802 ;; Auto vars:     Size  Location     Type
   803 ;;		None
   804 ;; Return value:  Size  Location     Type
   805 ;;                  1    wreg      void 
   806 ;; Registers used:
   807 ;;		wreg, status,2, status,0, pclath, cstack
   808 ;; Tracked objects:
   809 ;;		On entry : 0/0
   810 ;;		On exit  : 0/0
   811 ;;		Unchanged: 0/0
   812 ;; Data sizes:     COMMON   BANK0
   813 ;;      Params:         0       0
   814 ;;      Locals:         0       0
   815 ;;      Temps:          0       3
   816 ;;      Totals:         0       3
   817 ;;Total ram usage:        3 bytes
   818 ;; Hardware stack levels used: 1
   819 ;; Hardware stack levels required when called: 2
   820 ;; This function calls:
   821 ;;		_LongSound
   822 ;;		_ShortSound
   823 ;; This function is called by:
   824 ;;		_Pin7ThermoControl
   825 ;; This function uses a non-reentrant model
   826 ;;
   827                           
   828  0196                     _ThreeLongOneShort:	
   829                           ;psect for function _ThreeLongOneShort
   830                           
   831  0196                     l997:	
   832                           ;incstack = 0
   833                           ; Regs used in _ThreeLongOneShort: [wreg+status,2+status,0+pclath+cstack]
   834                           
   835                           
   836                           ;sounds.c: 43:    LongSound();
   837  0196  2180               	fcall	_LongSound
   838                           
   839                           ;sounds.c: 44:    LongSound();
   840  0197  2180               	fcall	_LongSound
   841                           
   842                           ;sounds.c: 45:    LongSound();
   843  0198  2180               	fcall	_LongSound
   844                           
   845                           ;sounds.c: 46:    ShortSound();
   846  0199  216A               	fcall	_ShortSound
   847  019A                     l999:
   848                           
   849                           ;sounds.c: 47:    _delay((unsigned long)((700)*(4000000/4000.0)));
   850  019A  3004               	movlw	4
   851  019B  1283               	bcf	3,5	;RP0=0, select bank0
   852  019C  00A7               	movwf	??_ThreeLongOneShort+2
   853  019D  308E               	movlw	142
   854  019E  00A6               	movwf	??_ThreeLongOneShort+1
   855  019F  3012               	movlw	18
   856  01A0  00A5               	movwf	??_ThreeLongOneShort
   857  01A1                     u427:
   858  01A1  0BA5               	decfsz	??_ThreeLongOneShort,f
   859  01A2  29A1               	goto	u427
   860  01A3  0BA6               	decfsz	??_ThreeLongOneShort+1,f
   861  01A4  29A1               	goto	u427
   862  01A5  0BA7               	decfsz	??_ThreeLongOneShort+2,f
   863  01A6  29A1               	goto	u427
   864  01A7  0000               	nop
   865  01A8                     l171:
   866  01A8  0008               	return
   867  01A9                     __end_of_ThreeLongOneShort:
   868                           
   869                           	psect	text4
   870  016A                     __ptext4:	
   871 ;; *************** function _ShortSound *****************
   872 ;; Defined at:
   873 ;;		line 13 in file "sounds.c"
   874 ;; Parameters:    Size  Location     Type
   875 ;;		None
   876 ;; Auto vars:     Size  Location     Type
   877 ;;		None
   878 ;; Return value:  Size  Location     Type
   879 ;;                  1    wreg      void 
   880 ;; Registers used:
   881 ;;		wreg
   882 ;; Tracked objects:
   883 ;;		On entry : 0/0
   884 ;;		On exit  : 0/0
   885 ;;		Unchanged: 0/0
   886 ;; Data sizes:     COMMON   BANK0
   887 ;;      Params:         0       0
   888 ;;      Locals:         0       0
   889 ;;      Temps:          0       2
   890 ;;      Totals:         0       2
   891 ;;Total ram usage:        2 bytes
   892 ;; Hardware stack levels used: 1
   893 ;; Hardware stack levels required when called: 1
   894 ;; This function calls:
   895 ;;		Nothing
   896 ;; This function is called by:
   897 ;;		_ThreeShort
   898 ;;		_ThreeLongOneShort
   899 ;;		_TwoShortOneLong
   900 ;;		_TwoShortTwoLong
   901 ;; This function uses a non-reentrant model
   902 ;;
   903                           
   904  016A                     _ShortSound:	
   905                           ;psect for function _ShortSound
   906                           
   907  016A                     l959:	
   908                           ;incstack = 0
   909                           ; Regs used in _ShortSound: [wreg]
   910                           
   911                           
   912                           ;sounds.c: 14:    GP2 = 1;
   913  016A  1283               	bcf	3,5	;RP0=0, select bank0
   914  016B  1505               	bsf	5,2	;volatile
   915  016C                     l961:
   916                           
   917                           ;sounds.c: 15:     _delay((unsigned long)((60)*(4000000/4000.0)));
   918  016C  304E               	movlw	78
   919  016D  00A4               	movwf	??_ShortSound+1
   920  016E  30EB               	movlw	235
   921  016F  00A3               	movwf	??_ShortSound
   922  0170                     u437:
   923  0170  0BA3               	decfsz	??_ShortSound,f
   924  0171  2970               	goto	u437
   925  0172  0BA4               	decfsz	??_ShortSound+1,f
   926  0173  2970               	goto	u437
   927  0174                     l963:
   928                           
   929                           ;sounds.c: 16:    GP2 = 0;
   930  0174  1283               	bcf	3,5	;RP0=0, select bank0
   931  0175  1105               	bcf	5,2	;volatile
   932                           
   933                           ;sounds.c: 17:     _delay((unsigned long)((80)*(4000000/4000.0)));
   934  0176  3068               	movlw	104
   935  0177  00A4               	movwf	??_ShortSound+1
   936  0178  30E4               	movlw	228
   937  0179  00A3               	movwf	??_ShortSound
   938  017A                     u447:
   939  017A  0BA3               	decfsz	??_ShortSound,f
   940  017B  297A               	goto	u447
   941  017C  0BA4               	decfsz	??_ShortSound+1,f
   942  017D  297A               	goto	u447
   943  017E  0000               	nop
   944  017F                     l159:
   945  017F  0008               	return
   946  0180                     __end_of_ShortSound:
   947                           
   948                           	psect	text5
   949  0180                     __ptext5:	
   950 ;; *************** function _LongSound *****************
   951 ;; Defined at:
   952 ;;		line 6 in file "sounds.c"
   953 ;; Parameters:    Size  Location     Type
   954 ;;		None
   955 ;; Auto vars:     Size  Location     Type
   956 ;;		None
   957 ;; Return value:  Size  Location     Type
   958 ;;                  1    wreg      void 
   959 ;; Registers used:
   960 ;;		wreg
   961 ;; Tracked objects:
   962 ;;		On entry : 0/0
   963 ;;		On exit  : 0/0
   964 ;;		Unchanged: 0/0
   965 ;; Data sizes:     COMMON   BANK0
   966 ;;      Params:         0       0
   967 ;;      Locals:         0       0
   968 ;;      Temps:          0       2
   969 ;;      Totals:         0       2
   970 ;;Total ram usage:        2 bytes
   971 ;; Hardware stack levels used: 1
   972 ;; Hardware stack levels required when called: 1
   973 ;; This function calls:
   974 ;;		Nothing
   975 ;; This function is called by:
   976 ;;		_ThreeLongOneShort
   977 ;;		_TwoShortOneLong
   978 ;;		_TwoShortTwoLong
   979 ;; This function uses a non-reentrant model
   980 ;;
   981                           
   982  0180                     _LongSound:	
   983                           ;psect for function _LongSound
   984                           
   985  0180                     l953:	
   986                           ;incstack = 0
   987                           ; Regs used in _LongSound: [wreg]
   988                           
   989                           
   990                           ;sounds.c: 7:    GP2 = 1;
   991  0180  1283               	bcf	3,5	;RP0=0, select bank0
   992  0181  1505               	bsf	5,2	;volatile
   993  0182                     l955:
   994                           
   995                           ;sounds.c: 8:     _delay((unsigned long)((150)*(4000000/4000.0)));
   996  0182  30C3               	movlw	195
   997  0183  00A4               	movwf	??_LongSound+1
   998  0184  30CD               	movlw	205
   999  0185  00A3               	movwf	??_LongSound
  1000  0186                     u457:
  1001  0186  0BA3               	decfsz	??_LongSound,f
  1002  0187  2986               	goto	u457
  1003  0188  0BA4               	decfsz	??_LongSound+1,f
  1004  0189  2986               	goto	u457
  1005  018A                     l957:
  1006                           
  1007                           ;sounds.c: 9:    GP2 = 0;
  1008  018A  1283               	bcf	3,5	;RP0=0, select bank0
  1009  018B  1105               	bcf	5,2	;volatile
  1010                           
  1011                           ;sounds.c: 10:     _delay((unsigned long)((80)*(4000000/4000.0)));
  1012  018C  3068               	movlw	104
  1013  018D  00A4               	movwf	??_LongSound+1
  1014  018E  30E4               	movlw	228
  1015  018F  00A3               	movwf	??_LongSound
  1016  0190                     u467:
  1017  0190  0BA3               	decfsz	??_LongSound,f
  1018  0191  2990               	goto	u467
  1019  0192  0BA4               	decfsz	??_LongSound+1,f
  1020  0193  2990               	goto	u467
  1021  0194  0000               	nop
  1022  0195                     l156:
  1023  0195  0008               	return
  1024  0196                     __end_of_LongSound:
  1025                           
  1026                           	psect	text6
  1027  00EB                     __ptext6:	
  1028 ;; *************** function _MeasureTemp *****************
  1029 ;; Defined at:
  1030 ;;		line 127 in file "ADC.c"
  1031 ;; Parameters:    Size  Location     Type
  1032 ;;		None
  1033 ;; Auto vars:     Size  Location     Type
  1034 ;;		None
  1035 ;; Return value:  Size  Location     Type
  1036 ;;                  2   38[None  ] unsigned int 
  1037 ;; Registers used:
  1038 ;;		wreg, status,2
  1039 ;; Tracked objects:
  1040 ;;		On entry : 0/0
  1041 ;;		On exit  : 0/0
  1042 ;;		Unchanged: 0/0
  1043 ;; Data sizes:     COMMON   BANK0
  1044 ;;      Params:         0       0
  1045 ;;      Locals:         0       0
  1046 ;;      Temps:          0       2
  1047 ;;      Totals:         0       2
  1048 ;;Total ram usage:        2 bytes
  1049 ;; Hardware stack levels used: 1
  1050 ;; Hardware stack levels required when called: 1
  1051 ;; This function calls:
  1052 ;;		Nothing
  1053 ;; This function is called by:
  1054 ;;		_Pin7ThermoControl
  1055 ;; This function uses a non-reentrant model
  1056 ;;
  1057                           
  1058  00EB                     _MeasureTemp:	
  1059                           ;psect for function _MeasureTemp
  1060                           
  1061  00EB                     l983:	
  1062                           ;incstack = 0
  1063                           ; Regs used in _MeasureTemp: [wreg+status,2]
  1064                           
  1065                           
  1066                           ;ADC.c: 129:        ADCON0 = 0x00;
  1067  00EB  1283               	bcf	3,5	;RP0=0, select bank0
  1068  00EC  019F               	clrf	31	;volatile
  1069  00ED                     l985:
  1070                           
  1071                           ;ADC.c: 130:        ADFM = 1;
  1072  00ED  179F               	bsf	31,7	;volatile
  1073  00EE                     l987:
  1074                           
  1075                           ;ADC.c: 131:        ADON = 1;
  1076  00EE  141F               	bsf	31,0	;volatile
  1077  00EF                     l989:
  1078                           
  1079                           ;ADC.c: 133:        _delay((unsigned long)((5)*(4000000/4000.0)));
  1080  00EF  3007               	movlw	7
  1081  00F0  00A4               	movwf	??_MeasureTemp+1
  1082  00F1  307D               	movlw	125
  1083  00F2  00A3               	movwf	??_MeasureTemp
  1084  00F3                     u477:
  1085  00F3  0BA3               	decfsz	??_MeasureTemp,f
  1086  00F4  28F3               	goto	u477
  1087  00F5  0BA4               	decfsz	??_MeasureTemp+1,f
  1088  00F6  28F3               	goto	u477
  1089  00F7                     l991:
  1090                           
  1091                           ;ADC.c: 134:        GO = 1;
  1092  00F7  1283               	bcf	3,5	;RP0=0, select bank0
  1093  00F8  149F               	bsf	31,1	;volatile
  1094  00F9                     l96:	
  1095                           ;ADC.c: 135:        while(!ADIF);
  1096                           
  1097  00F9  1F0C               	btfss	12,6	;volatile
  1098  00FA  28FC               	goto	u221
  1099  00FB  28FD               	goto	u220
  1100  00FC                     u221:
  1101  00FC  28F9               	goto	l96
  1102  00FD                     u220:
  1103  00FD                     l993:
  1104                           
  1105                           ;ADC.c: 136:        _delay((unsigned long)((5)*(4000000/4000.0)));
  1106  00FD  3007               	movlw	7
  1107  00FE  00A4               	movwf	??_MeasureTemp+1
  1108  00FF  307D               	movlw	125
  1109  0100  00A3               	movwf	??_MeasureTemp
  1110  0101                     u487:
  1111  0101  0BA3               	decfsz	??_MeasureTemp,f
  1112  0102  2901               	goto	u487
  1113  0103  0BA4               	decfsz	??_MeasureTemp+1,f
  1114  0104  2901               	goto	u487
  1115                           
  1116                           ;ADC.c: 138:        adcValue = (uint16_t)((ADRESH << 8) + ADRESL);
  1117  0105  1283               	bcf	3,5	;RP0=0, select bank0
  1118  0106  081E               	movf	30,w	;volatile
  1119  0107  00AA               	movwf	_adcValue+1	;volatile
  1120  0108  1683               	bsf	3,5	;RP0=1, select bank1
  1121  0109  081E               	movf	30,w	;volatile
  1122  010A  1283               	bcf	3,5	;RP0=0, select bank0
  1123  010B  00A9               	movwf	_adcValue	;volatile
  1124  010C                     l99:
  1125  010C  0008               	return
  1126  010D                     __end_of_MeasureTemp:
  1127                           
  1128                           	psect	text7
  1129  0151                     __ptext7:	
  1130 ;; *************** function _Pin6VoltageControl *****************
  1131 ;; Defined at:
  1132 ;;		line 71 in file "ADC.c"
  1133 ;; Parameters:    Size  Location     Type
  1134 ;;		None
  1135 ;; Auto vars:     Size  Location     Type
  1136 ;;		None
  1137 ;; Return value:  Size  Location     Type
  1138 ;;                  1    wreg      void 
  1139 ;; Registers used:
  1140 ;;		wreg, status,2, status,0, pclath, cstack
  1141 ;; Tracked objects:
  1142 ;;		On entry : 0/0
  1143 ;;		On exit  : 0/0
  1144 ;;		Unchanged: 0/0
  1145 ;; Data sizes:     COMMON   BANK0
  1146 ;;      Params:         0       0
  1147 ;;      Locals:         0       0
  1148 ;;      Temps:          0       0
  1149 ;;      Totals:         0       0
  1150 ;;Total ram usage:        0 bytes
  1151 ;; Hardware stack levels used: 1
  1152 ;; Hardware stack levels required when called: 2
  1153 ;; This function calls:
  1154 ;;		_MeasureVoltage
  1155 ;; This function is called by:
  1156 ;;		_main
  1157 ;; This function uses a non-reentrant model
  1158 ;;
  1159                           
  1160  0151                     _Pin6VoltageControl:	
  1161                           ;psect for function _Pin6VoltageControl
  1162                           
  1163  0151                     l1057:	
  1164                           ;incstack = 0
  1165                           ; Regs used in _Pin6VoltageControl: [wreg+status,2+status,0+pclath+cstack]
  1166                           
  1167                           
  1168                           ;ADC.c: 73:    MeasureVoltage();
  1169  0151  210D               	fcall	_MeasureVoltage
  1170  0152                     l1059:
  1171                           
  1172                           ;ADC.c: 74:      if (adcValue <= 190) {
  1173  0152  3000               	movlw	0
  1174  0153  1283               	bcf	3,5	;RP0=0, select bank0
  1175  0154  022A               	subwf	_adcValue+1,w	;volatile
  1176  0155  30BF               	movlw	191
  1177  0156  1903               	skipnz
  1178  0157  0229               	subwf	_adcValue,w	;volatile
  1179  0158  1803               	skipnc
  1180  0159  295B               	goto	u251
  1181  015A  295C               	goto	u250
  1182  015B                     u251:
  1183  015B  295E               	goto	l1063
  1184  015C                     u250:
  1185  015C                     l1061:
  1186                           
  1187                           ;ADC.c: 75:          GP5 = 1;
  1188  015C  1685               	bsf	5,5	;volatile
  1189                           
  1190                           ;ADC.c: 76:         }
  1191  015D  2969               	goto	l76
  1192  015E                     l1063:
  1193  015E  3001               	movlw	1
  1194  015F  022A               	subwf	_adcValue+1,w	;volatile
  1195  0160  3016               	movlw	22
  1196  0161  1903               	skipnz
  1197  0162  0229               	subwf	_adcValue,w	;volatile
  1198  0163  1C03               	skipc
  1199  0164  2966               	goto	u261
  1200  0165  2967               	goto	u260
  1201  0166                     u261:
  1202  0166  2968               	goto	l74
  1203  0167                     u260:
  1204  0167  295C               	goto	l1061
  1205  0168                     l74:	
  1206                           ;ADC.c: 80:      else GP5 = 0;
  1207                           
  1208  0168  1285               	bcf	5,5	;volatile
  1209  0169                     l76:
  1210  0169  0008               	return
  1211  016A                     __end_of_Pin6VoltageControl:
  1212                           
  1213                           	psect	text8
  1214  0099                     __ptext8:	
  1215 ;; *************** function _Init_uC *****************
  1216 ;; Defined at:
  1217 ;;		line 13 in file "ADC.c"
  1218 ;; Parameters:    Size  Location     Type
  1219 ;;		None
  1220 ;; Auto vars:     Size  Location     Type
  1221 ;;		None
  1222 ;; Return value:  Size  Location     Type
  1223 ;;                  1    wreg      void 
  1224 ;; Registers used:
  1225 ;;		wreg, status,2, status,0, pclath, cstack
  1226 ;; Tracked objects:
  1227 ;;		On entry : 0/0
  1228 ;;		On exit  : 0/0
  1229 ;;		Unchanged: 0/0
  1230 ;; Data sizes:     COMMON   BANK0
  1231 ;;      Params:         0       0
  1232 ;;      Locals:         0       0
  1233 ;;      Temps:          0       3
  1234 ;;      Totals:         0       3
  1235 ;;Total ram usage:        3 bytes
  1236 ;; Hardware stack levels used: 1
  1237 ;; Hardware stack levels required when called: 2
  1238 ;; This function calls:
  1239 ;;		_MeasureVoltage
  1240 ;; This function is called by:
  1241 ;;		_main
  1242 ;; This function uses a non-reentrant model
  1243 ;;
  1244                           
  1245  0099                     _Init_uC:	
  1246                           ;psect for function _Init_uC
  1247                           
  1248  0099                     l1005:	
  1249                           ;incstack = 0
  1250                           ; Regs used in _Init_uC: [wreg+status,2+status,0+pclath+cstack]
  1251                           
  1252                           
  1253                           ;ADC.c: 16:     ADON = 1;
  1254  0099  1283               	bcf	3,5	;RP0=0, select bank0
  1255  009A  141F               	bsf	31,0	;volatile
  1256                           
  1257                           ;ADC.c: 18:     VCFG = 1;
  1258  009B  171F               	bsf	31,6	;volatile
  1259                           
  1260                           ;ADC.c: 19:     TRISIO0 = 1;
  1261  009C  1683               	bsf	3,5	;RP0=1, select bank1
  1262  009D  1405               	bsf	5,0	;volatile
  1263                           
  1264                           ;ADC.c: 20:     TRISIO1 = 1;
  1265  009E  1485               	bsf	5,1	;volatile
  1266  009F                     l1007:
  1267                           
  1268                           ;ADC.c: 23:  CMCON = 0x07;
  1269  009F  3007               	movlw	7
  1270  00A0  1283               	bcf	3,5	;RP0=0, select bank0
  1271  00A1  0099               	movwf	25	;volatile
  1272  00A2                     l1009:
  1273                           
  1274                           ;ADC.c: 24:     VRCON = 0x00;
  1275  00A2  1683               	bsf	3,5	;RP0=1, select bank1
  1276  00A3  0199               	clrf	25	;volatile
  1277  00A4                     l1011:
  1278                           
  1279                           ;ADC.c: 27:     TRISIO = 0;
  1280  00A4  0185               	clrf	5	;volatile
  1281  00A5                     l1013:
  1282                           
  1283                           ;ADC.c: 28:     GPIO = 0;
  1284  00A5  1283               	bcf	3,5	;RP0=0, select bank0
  1285  00A6  0185               	clrf	5	;volatile
  1286  00A7                     l1015:
  1287                           
  1288                           ;ADC.c: 31:     TRISIO2 = 0;
  1289  00A7  1683               	bsf	3,5	;RP0=1, select bank1
  1290  00A8  1105               	bcf	5,2	;volatile
  1291  00A9                     l1017:
  1292                           
  1293                           ;ADC.c: 32:     GP2 = 0;
  1294  00A9  1283               	bcf	3,5	;RP0=0, select bank0
  1295  00AA  1105               	bcf	5,2	;volatile
  1296  00AB                     l1019:
  1297                           
  1298                           ;ADC.c: 35:     TRISIO5 = 0;
  1299  00AB  1683               	bsf	3,5	;RP0=1, select bank1
  1300  00AC  1285               	bcf	5,5	;volatile
  1301  00AD                     l1021:
  1302                           
  1303                           ;ADC.c: 36:     GP5 = 1;
  1304  00AD  1283               	bcf	3,5	;RP0=0, select bank0
  1305  00AE  1685               	bsf	5,5	;volatile
  1306  00AF                     l1023:
  1307                           
  1308                           ;ADC.c: 38:     pwmValue = 0;
  1309  00AF  01AC               	clrf	_pwmValue	;volatile
  1310  00B0                     l1025:
  1311                           
  1312                           ;ADC.c: 39:     adcValue = 0;
  1313  00B0  01A9               	clrf	_adcValue	;volatile
  1314  00B1  01AA               	clrf	_adcValue+1	;volatile
  1315  00B2                     l1027:
  1316                           
  1317                           ;ADC.c: 43:     TRISIO4 = 0;
  1318  00B2  1683               	bsf	3,5	;RP0=1, select bank1
  1319  00B3  1205               	bcf	5,4	;volatile
  1320  00B4                     l1029:
  1321                           
  1322                           ;ADC.c: 44:     GP4 = 0;
  1323  00B4  1283               	bcf	3,5	;RP0=0, select bank0
  1324  00B5  1205               	bcf	5,4	;volatile
  1325  00B6                     l1031:
  1326                           
  1327                           ;ADC.c: 48:     ADON = 1;
  1328  00B6  141F               	bsf	31,0	;volatile
  1329  00B7                     l1033:
  1330                           
  1331                           ;ADC.c: 50:     VCFG = 1;
  1332  00B7  171F               	bsf	31,6	;volatile
  1333  00B8                     l1035:
  1334                           
  1335                           ;ADC.c: 51:     TRISIO0 = 1;
  1336  00B8  1683               	bsf	3,5	;RP0=1, select bank1
  1337  00B9  1405               	bsf	5,0	;volatile
  1338  00BA                     l1037:
  1339                           
  1340                           ;ADC.c: 52:     TRISIO1 = 1;
  1341  00BA  1485               	bsf	5,1	;volatile
  1342  00BB                     l1039:
  1343                           
  1344                           ;ADC.c: 54:     ANSEL = 0b00110011;
  1345  00BB  3033               	movlw	51
  1346  00BC  009F               	movwf	31	;volatile
  1347  00BD                     l1041:
  1348                           
  1349                           ;ADC.c: 56:     GIE = 1;
  1350  00BD  178B               	bsf	11,7	;volatile
  1351  00BE                     l1043:
  1352                           
  1353                           ;ADC.c: 59:     MeasureVoltage();
  1354  00BE  210D               	fcall	_MeasureVoltage
  1355  00BF                     l1045:
  1356                           
  1357                           ;ADC.c: 60:     if (adcValue <= 190) GP5 = 1;
  1358  00BF  3000               	movlw	0
  1359  00C0  1283               	bcf	3,5	;RP0=0, select bank0
  1360  00C1  022A               	subwf	_adcValue+1,w	;volatile
  1361  00C2  30BF               	movlw	191
  1362  00C3  1903               	skipnz
  1363  00C4  0229               	subwf	_adcValue,w	;volatile
  1364  00C5  1803               	skipnc
  1365  00C6  28C8               	goto	u231
  1366  00C7  28C9               	goto	u230
  1367  00C8                     u231:
  1368  00C8  28CC               	goto	l1049
  1369  00C9                     u230:
  1370  00C9                     l1047:
  1371  00C9  1283               	bcf	3,5	;RP0=0, select bank0
  1372  00CA  1685               	bsf	5,5	;volatile
  1373  00CB  28DD               	goto	l66
  1374  00CC                     l1049:
  1375  00CC  3001               	movlw	1
  1376  00CD  022A               	subwf	_adcValue+1,w	;volatile
  1377  00CE  3016               	movlw	22
  1378  00CF  1903               	skipnz
  1379  00D0  0229               	subwf	_adcValue,w	;volatile
  1380  00D1  1C03               	skipc
  1381  00D2  28D4               	goto	u241
  1382  00D3  28D5               	goto	u240
  1383  00D4                     u241:
  1384  00D4  28D6               	goto	l67
  1385  00D5                     u240:
  1386  00D5  28C9               	goto	l1047
  1387  00D6                     l67:	
  1388                           ;ADC.c: 62:        else {GP5 = 0;
  1389                           
  1390  00D6  1285               	bcf	5,5	;volatile
  1391  00D7                     l1053:
  1392                           
  1393                           ;ADC.c: 63:              _delay((unsigned long)((650)*(4000000/4000000.0)));
  1394  00D7  30D8               	movlw	216
  1395  00D8  00A4               	movwf	??_Init_uC
  1396  00D9                     u497:
  1397  00D9  0BA4               	decfsz	??_Init_uC,f
  1398  00DA  28D9               	goto	u497
  1399  00DB  0000               	nop
  1400  00DC  28C9               	goto	l1047
  1401  00DD                     l66:
  1402                           
  1403                           ;ADC.c: 66:     _delay((unsigned long)((1000)*(4000000/4000.0)));
  1404  00DD  3006               	movlw	6
  1405  00DE  00A6               	movwf	??_Init_uC+2
  1406  00DF  3013               	movlw	19
  1407  00E0  00A5               	movwf	??_Init_uC+1
  1408  00E1  30AD               	movlw	173
  1409  00E2  00A4               	movwf	??_Init_uC
  1410  00E3                     u507:
  1411  00E3  0BA4               	decfsz	??_Init_uC,f
  1412  00E4  28E3               	goto	u507
  1413  00E5  0BA5               	decfsz	??_Init_uC+1,f
  1414  00E6  28E3               	goto	u507
  1415  00E7  0BA6               	decfsz	??_Init_uC+2,f
  1416  00E8  28E3               	goto	u507
  1417  00E9  28EA               	nop2
  1418  00EA                     l69:
  1419  00EA  0008               	return
  1420  00EB                     __end_of_Init_uC:
  1421                           
  1422                           	psect	text9
  1423  010D                     __ptext9:	
  1424 ;; *************** function _MeasureVoltage *****************
  1425 ;; Defined at:
  1426 ;;		line 144 in file "ADC.c"
  1427 ;; Parameters:    Size  Location     Type
  1428 ;;		None
  1429 ;; Auto vars:     Size  Location     Type
  1430 ;;		None
  1431 ;; Return value:  Size  Location     Type
  1432 ;;                  2   34[None  ] unsigned int 
  1433 ;; Registers used:
  1434 ;;		wreg, status,2
  1435 ;; Tracked objects:
  1436 ;;		On entry : 0/0
  1437 ;;		On exit  : 0/0
  1438 ;;		Unchanged: 0/0
  1439 ;; Data sizes:     COMMON   BANK0
  1440 ;;      Params:         0       0
  1441 ;;      Locals:         0       0
  1442 ;;      Temps:          0       1
  1443 ;;      Totals:         0       1
  1444 ;;Total ram usage:        1 bytes
  1445 ;; Hardware stack levels used: 1
  1446 ;; Hardware stack levels required when called: 1
  1447 ;; This function calls:
  1448 ;;		Nothing
  1449 ;; This function is called by:
  1450 ;;		_Init_uC
  1451 ;;		_Pin6VoltageControl
  1452 ;; This function uses a non-reentrant model
  1453 ;;
  1454                           
  1455  010D                     _MeasureVoltage:	
  1456                           ;psect for function _MeasureVoltage
  1457                           
  1458  010D                     l965:	
  1459                           ;incstack = 0
  1460                           ; Regs used in _MeasureVoltage: [wreg+status,2]
  1461                           
  1462                           
  1463                           ;ADC.c: 146:     ADCON0 = 0x00;
  1464  010D  1283               	bcf	3,5	;RP0=0, select bank0
  1465  010E  019F               	clrf	31	;volatile
  1466  010F                     l967:
  1467                           
  1468                           ;ADC.c: 147:     ADFM = 1;
  1469  010F  179F               	bsf	31,7	;volatile
  1470  0110                     l969:
  1471                           
  1472                           ;ADC.c: 148:     CHS1 = 0;
  1473  0110  119F               	bcf	31,3	;volatile
  1474  0111                     l971:
  1475                           
  1476                           ;ADC.c: 149:     CHS0 = 1;
  1477  0111  151F               	bsf	31,2	;volatile
  1478  0112                     l973:
  1479                           
  1480                           ;ADC.c: 150:     ADON = 1;
  1481  0112  141F               	bsf	31,0	;volatile
  1482  0113                     l975:
  1483                           
  1484                           ;ADC.c: 152:      _delay((unsigned long)((1)*(4000000/4000.0)));
  1485  0113  30C7               	movlw	199
  1486  0114  00A3               	movwf	??_MeasureVoltage
  1487  0115                     u517:
  1488  0115  2916               	nop2
  1489  0116  0BA3               	decfsz	??_MeasureVoltage,f
  1490  0117  2915               	goto	u517
  1491  0118  2919               	nop2
  1492  0119  291A               	nop2
  1493  011A                     l977:
  1494                           
  1495                           ;ADC.c: 153:        GO = 1;
  1496  011A  1283               	bcf	3,5	;RP0=0, select bank0
  1497  011B  149F               	bsf	31,1	;volatile
  1498  011C                     l102:	
  1499                           ;ADC.c: 154:        while(!ADIF);
  1500                           
  1501  011C  1F0C               	btfss	12,6	;volatile
  1502  011D  291F               	goto	u211
  1503  011E  2920               	goto	u210
  1504  011F                     u211:
  1505  011F  291C               	goto	l102
  1506  0120                     u210:
  1507  0120                     l979:
  1508                           
  1509                           ;ADC.c: 155:      _delay((unsigned long)((1)*(4000000/4000.0)));
  1510  0120  30C7               	movlw	199
  1511  0121  00A3               	movwf	??_MeasureVoltage
  1512  0122                     u527:
  1513  0122  2923               	nop2
  1514  0123  0BA3               	decfsz	??_MeasureVoltage,f
  1515  0124  2922               	goto	u527
  1516  0125  2926               	nop2
  1517  0126  2927               	nop2
  1518                           
  1519                           ;ADC.c: 157:        adcValue = (uint16_t)((ADRESH<<8)+ADRESL);
  1520  0127  1283               	bcf	3,5	;RP0=0, select bank0
  1521  0128  081E               	movf	30,w	;volatile
  1522  0129  00AA               	movwf	_adcValue+1	;volatile
  1523  012A  1683               	bsf	3,5	;RP0=1, select bank1
  1524  012B  081E               	movf	30,w	;volatile
  1525  012C  1283               	bcf	3,5	;RP0=0, select bank0
  1526  012D  00A9               	movwf	_adcValue	;volatile
  1527  012E                     l105:
  1528  012E  0008               	return
  1529  012F                     __end_of_MeasureVoltage:
  1530                           
  1531                           	psect	text10
  1532  01BB                     __ptext10:	
  1533 ;; *************** function _InitTimer0 *****************
  1534 ;; Defined at:
  1535 ;;		line 4 in file "timer0.c"
  1536 ;; Parameters:    Size  Location     Type
  1537 ;;		None
  1538 ;; Auto vars:     Size  Location     Type
  1539 ;;		None
  1540 ;; Return value:  Size  Location     Type
  1541 ;;                  1    wreg      void 
  1542 ;; Registers used:
  1543 ;;		wreg, status,2, status,0
  1544 ;; Tracked objects:
  1545 ;;		On entry : 0/0
  1546 ;;		On exit  : 0/0
  1547 ;;		Unchanged: 0/0
  1548 ;; Data sizes:     COMMON   BANK0
  1549 ;;      Params:         0       0
  1550 ;;      Locals:         0       0
  1551 ;;      Temps:          0       1
  1552 ;;      Totals:         0       1
  1553 ;;Total ram usage:        1 bytes
  1554 ;; Hardware stack levels used: 1
  1555 ;; Hardware stack levels required when called: 1
  1556 ;; This function calls:
  1557 ;;		Nothing
  1558 ;; This function is called by:
  1559 ;;		_main
  1560 ;; This function uses a non-reentrant model
  1561 ;;
  1562                           
  1563  01BB                     _InitTimer0:	
  1564                           ;psect for function _InitTimer0
  1565                           
  1566  01BB                     l1113:	
  1567                           ;incstack = 0
  1568                           ; Regs used in _InitTimer0: [wreg+status,2+status,0]
  1569                           
  1570                           
  1571                           ;timer0.c: 7:  OPTION_REG &= 0xC0;
  1572  01BB  30C0               	movlw	192
  1573  01BC  1283               	bcf	3,5	;RP0=0, select bank0
  1574  01BD  00A3               	movwf	??_InitTimer0
  1575  01BE  0823               	movf	??_InitTimer0,w
  1576  01BF  1683               	bsf	3,5	;RP0=1, select bank1
  1577  01C0  0581               	andwf	1,f	;volatile
  1578  01C1                     l1115:
  1579                           
  1580                           ;timer0.c: 8:  T0IE = 1;
  1581  01C1  168B               	bsf	11,5	;volatile
  1582  01C2                     l131:
  1583  01C2  0008               	return
  1584  01C3                     __end_of_InitTimer0:
  1585                           
  1586                           	psect	text11
  1587  012F                     __ptext11:	
  1588 ;; *************** function _ISR *****************
  1589 ;; Defined at:
  1590 ;;		line 8 in file "interrupt.c"
  1591 ;; Parameters:    Size  Location     Type
  1592 ;;		None
  1593 ;; Auto vars:     Size  Location     Type
  1594 ;;		None
  1595 ;; Return value:  Size  Location     Type
  1596 ;;                  1    wreg      void 
  1597 ;; Registers used:
  1598 ;;		wreg, status,2, status,0
  1599 ;; Tracked objects:
  1600 ;;		On entry : 0/0
  1601 ;;		On exit  : 0/0
  1602 ;;		Unchanged: 0/0
  1603 ;; Data sizes:     COMMON   BANK0
  1604 ;;      Params:         0       0
  1605 ;;      Locals:         0       0
  1606 ;;      Temps:          0       3
  1607 ;;      Totals:         0       3
  1608 ;;Total ram usage:        3 bytes
  1609 ;; Hardware stack levels used: 1
  1610 ;; This function calls:
  1611 ;;		Nothing
  1612 ;; This function is called by:
  1613 ;;		Interrupt level 1
  1614 ;; This function uses a non-reentrant model
  1615 ;;
  1616                           
  1617  012F                     _ISR:	
  1618                           ;psect for function _ISR
  1619                           
  1620  012F                     i1l1117:
  1621                           
  1622                           ;interrupt.c: 10:              TMR0 = 200;
  1623  012F  30C8               	movlw	200
  1624  0130  0081               	movwf	1	;volatile
  1625  0131                     i1l1119:
  1626                           
  1627                           ;interrupt.c: 11:              highLevelTime++;
  1628  0131  3001               	movlw	1
  1629  0132  00A0               	movwf	??_ISR
  1630  0133  0820               	movf	??_ISR,w
  1631  0134  07AB               	addwf	_highLevelTime,f	;volatile
  1632  0135                     i1l1121:
  1633                           
  1634                           ;interrupt.c: 12:            if(T0IF){
  1635  0135  1D0B               	btfss	11,2	;volatile
  1636  0136  2938               	goto	u38_21
  1637  0137  2939               	goto	u38_20
  1638  0138                     u38_21:
  1639  0138  2943               	goto	i1l1127
  1640  0139                     u38_20:
  1641  0139                     i1l1123:
  1642                           
  1643                           ;interrupt.c: 13:             if (highLevelTime < pwmValue) GP4 = 1;
  1644  0139  082C               	movf	_pwmValue,w	;volatile
  1645  013A  022B               	subwf	_highLevelTime,w	;volatile
  1646  013B  1803               	skipnc
  1647  013C  293E               	goto	u39_21
  1648  013D  293F               	goto	u39_20
  1649  013E                     u39_21:
  1650  013E  2941               	goto	i1l121
  1651  013F                     u39_20:
  1652  013F                     i1l1125:
  1653  013F  1605               	bsf	5,4	;volatile
  1654  0140  2942               	goto	i1l122
  1655  0141                     i1l121:	
  1656                           ;interrupt.c: 15:                  else GP4 = 0;
  1657                           
  1658  0141  1205               	bcf	5,4	;volatile
  1659  0142                     i1l122:
  1660                           
  1661                           ;interrupt.c: 17:             T0IF = 0;
  1662  0142  110B               	bcf	11,2	;volatile
  1663  0143                     i1l1127:
  1664                           
  1665                           ;interrupt.c: 20:              if (highLevelTime > 100) highLevelTime = 0;
  1666  0143  3065               	movlw	101
  1667  0144  022B               	subwf	_highLevelTime,w	;volatile
  1668  0145  1C03               	skipc
  1669  0146  2948               	goto	u40_21
  1670  0147  2949               	goto	u40_20
  1671  0148                     u40_21:
  1672  0148  294A               	goto	i1l124
  1673  0149                     u40_20:
  1674  0149                     i1l1129:
  1675  0149  01AB               	clrf	_highLevelTime	;volatile
  1676  014A                     i1l124:
  1677  014A  0822               	movf	??_ISR+2,w
  1678  014B  008A               	movwf	10
  1679  014C  0E21               	swapf	??_ISR+1,w
  1680  014D  0083               	movwf	3
  1681  014E  0EDE               	swapf	btemp,f
  1682  014F  0E5E               	swapf	btemp,w
  1683  0150  0009               	retfie
  1684  0151                     __end_of_ISR:
  1685  005E                     btemp	set	94	;btemp
  1686  005E                     wtemp0	set	94
  1687                           
  1688                           	psect	intentry
  1689  0004                     __pintentry:	
  1690                           ;incstack = 0
  1691                           ; Regs used in _ISR: [wreg+status,2+status,0]
  1692                           
  1693  0004                     interrupt_function:
  1694  005E                     saved_w	set	btemp
  1695  0004  00DE               	movwf	btemp
  1696  0005  0E03               	swapf	3,w
  1697  0006  1283               	bcf	3,5	;RP0=0, select bank0
  1698  0007  00A1               	movwf	??_ISR+1
  1699  0008  080A               	movf	10,w
  1700  0009  00A2               	movwf	??_ISR+2
  1701  000A  292F               	ljmp	_ISR

Data Sizes:
    Strings     0
    Constant    0
    Data        0
    BSS         4
    Persistent  0
    Stack       0

Auto Spaces:
    Space          Size  Autos    Used
    COMMON            0      0       0
    BANK0            62      9      13

Pointer List with Targets:

    None.

Critical Paths under _main in COMMON

    None.

Critical Paths under _ISR in COMMON

    None.

Critical Paths under _main in BANK0

    _main->_Pin7ThermoControl
    _Pin7ThermoControl->_ThreeLongOneShort
    _Pin7ThermoControl->_ThreeShort
    _ThreeShort->_ShortSound
    _ThreeLongOneShort->_LongSound
    _ThreeLongOneShort->_ShortSound
    _Pin6VoltageControl->_MeasureVoltage
    _Init_uC->_MeasureVoltage

Critical Paths under _ISR in BANK0

    None.

Call Graph Tables:

 ---------------------------------------------------------------------------------
 (Depth) Function   	        Calls       Base Space   Used Autos Params    Refs
 ---------------------------------------------------------------------------------
 (0) _main                                                 0     0      0       0
                         _InitTimer0
                            _Init_uC
                 _Pin6VoltageControl
                  _Pin7ThermoControl
 ---------------------------------------------------------------------------------
 (1) _Pin7ThermoControl                                    1     1      0       0
                                              8 BANK0      1     1      0
                        _MeasureTemp
                  _ThreeLongOneShort
                         _ThreeShort
 ---------------------------------------------------------------------------------
 (2) _ThreeShort                                           3     3      0       0
                                              5 BANK0      3     3      0
                         _ShortSound
 ---------------------------------------------------------------------------------
 (2) _ThreeLongOneShort                                    3     3      0       0
                                              5 BANK0      3     3      0
                          _LongSound
                         _ShortSound
 ---------------------------------------------------------------------------------
 (3) _ShortSound                                           2     2      0       0
                                              3 BANK0      2     2      0
 ---------------------------------------------------------------------------------
 (3) _LongSound                                            2     2      0       0
                                              3 BANK0      2     2      0
 ---------------------------------------------------------------------------------
 (2) _MeasureTemp                                          2     2      0       0
                                              3 BANK0      2     2      0
 ---------------------------------------------------------------------------------
 (1) _Pin6VoltageControl                                   0     0      0       0
                     _MeasureVoltage
 ---------------------------------------------------------------------------------
 (1) _Init_uC                                              3     3      0       0
                                              4 BANK0      3     3      0
                     _MeasureVoltage
 ---------------------------------------------------------------------------------
 (2) _MeasureVoltage                                       1     1      0       0
                                              3 BANK0      1     1      0
 ---------------------------------------------------------------------------------
 (1) _InitTimer0                                           1     1      0       0
                                              3 BANK0      1     1      0
 ---------------------------------------------------------------------------------
 Estimated maximum stack depth 3
 ---------------------------------------------------------------------------------
 (Depth) Function   	        Calls       Base Space   Used Autos Params    Refs
 ---------------------------------------------------------------------------------
 (4) _ISR                                                  3     3      0       0
                                              0 BANK0      3     3      0
 ---------------------------------------------------------------------------------
 Estimated maximum stack depth 4
 ---------------------------------------------------------------------------------

 Call Graph Graphs:

 _main (ROOT)
   _InitTimer0
   _Init_uC
     _MeasureVoltage
   _Pin6VoltageControl
     _MeasureVoltage
   _Pin7ThermoControl
     _MeasureTemp
     _ThreeLongOneShort
       _LongSound
       _ShortSound
     _ThreeShort
       _ShortSound

 _ISR (ROOT)

 Address spaces:
Name               Size   Autos  Total    Cost      Usage
BITCOMMON            0      0       0       0        0.0%
EEDATA              80      0       0       0        0.0%
NULL                 0      0       0       0        0.0%
CODE                 0      0       0       0        0.0%
BITSFR0              0      0       0       1        0.0%
SFR0                 0      0       0       1        0.0%
COMMON               0      0       0       1        0.0%
BITSFR1              0      0       0       2        0.0%
SFR1                 0      0       0       2        0.0%
STACK                0      0       0       2        0.0%
BITBANK0            3E      0       0       3        0.0%
BANK0               3E      9       D       4       21.0%
ABS                  0      0       D       5        0.0%
DATA                 0      0       D       6        0.0%


Microchip Technology PIC Macro Assembler V2.36 build 20220127204148 
Symbol Table                                                                                   Mon Oct 30 19:57:44 2023

                        l66 00DD                          l74 0168                          l67 00D6  
                        l76 0169                          l69 00EA                          l93 0098  
                        l96 00F9                          l89 0087                          _GO 00F9  
                        l99 010C                         l102 011C                         l105 012E  
                       l131 01C2                         l146 01C6                         l171 01A8  
                       l156 0195                         l159 017F                         l168 01BA  
                       l953 0180                         l961 016C                         l971 0111  
                       l955 0182                         l963 0174                         l973 0112  
                       l965 010D                         l957 018A                         _GP2 002A  
                       l975 0113                         l967 010F                         l991 00F7  
                       l983 00EB                         l959 016A                         _GP4 002C  
                       l977 011A                         l969 0110                         l993 00FD  
                       l985 00ED                         _GP5 002D                         l979 0120  
                       l987 00EE                         _GIE 005F                         l989 00EF  
                       l997 0196                         l999 019A                         u210 0120  
                       u211 011F                         u220 00FD                         u300 003F  
                       u221 00FC                         u301 003E                         u230 00C9  
                       u310 004A                         u231 00C8                         u311 0049  
                       u240 00D5                         u320 0053                         u241 00D4  
                       u321 0052                         u250 015C                         u330 0061  
                       u251 015B                         u331 0060                         u260 0167  
                       u340 006A                         u261 0166                         u341 0069  
                       u350 0078                         u270 001E                         u351 0077  
                       u271 001D                         u360 0081                         u280 002C  
                       u417 01B3                         u361 0080                         u281 002B  
                       u370 0098                         u290 0036                         u507 00E3  
                       u427 01A1                         u371 0097                         u291 0035  
                       _ISR 012F                         u517 0115                         u437 0170  
                       u527 0122                         u447 017A                         u457 0186  
                       u467 0190                         u477 00F3                         u487 0101  
                       u497 00D9                        ?_ISR 0020                        l1001 01A9  
                      l1011 00A4                        l1003 01AC                        l1021 00AD  
                      l1013 00A5                        l1005 0099                        l1101 0078  
                      l1031 00B6                        l1023 00AF                        l1015 00A7  
                      l1007 009F                        l1111 008D                        l1103 0081  
                      l1113 01BB                        l1041 00BD                        l1033 00B7  
                      l1025 00B0                        l1017 00A9                        l1009 00A2  
                      l1105 0085                        l1115 01C1                        l1043 00BE  
                      l1035 00B8                        l1027 00B2                        l1019 00AB  
                      l1107 0088                        l1131 01C3                        l1053 00D7  
                      l1045 00BF                        l1037 00BA                        l1029 00B4  
                      l1061 015C                        l1109 008C                        l1133 01C4  
                      l1047 00C9                        l1039 00BB                        l1063 015E  
                      l1071 001E                        l1049 00CC                        l1057 0151  
                      l1073 001F                        l1081 002D                        l1059 0152  
                      l1091 0053                        l1083 0036                        l1075 0020  
                      l1067 0013                        l1093 0058                        l1085 003F  
                      l1077 0021                        l1069 0014                        l1095 0061  
                      l1087 0041                        l1079 0022                        l1097 006A  
                      l1089 004A                        l1099 006F                        _ADIF 0066  
                      _ADFM 00FF                        _ADON 00F8                        _CHS0 00FA  
                      _CHS1 00FB                        _T0IE 005D                        _T0IF 005A  
                      _GPIO 0005                        _VCFG 00FE                        _TMR0 0001  
                      _main 01C3                        btemp 005E                        start 000B  
             ??_MeasureTemp 0023             __end_of_Init_uC 00EB                       ??_ISR 0020  
          nosup@@$_$_CONFIG 0000                       ?_main 0020                       _CMCON 0019  
                     _ANSEL 009F                       i1l121 0141                       i1l122 0142  
                     i1l124 014A                       u40_20 0149                       u40_21 0148  
                     u38_20 0139                       u38_21 0138                       u39_20 013F  
                     u39_21 013E                       _VRCON 0099                       pclath 000A  
                     status 0003              _MeasureVoltage 010D                       wtemp0 005E  
__end_of_Pin6VoltageControl 016A             __initialization 000C                  _InitTimer0 01BB  
              __end_of_main 01CA         __end_of_MeasureTemp 010D                      ??_main 0000  
                    _ADCON0 001F                      _ADRESH 001E                      _ADRESL 009E  
    __end_of_MeasureVoltage 012F                      i1l1121 0135                      i1l1123 0139  
                    i1l1125 013F                      i1l1117 012F                      i1l1127 0143  
                    i1l1119 0131                      i1l1129 0149                      _TRISIO 0085  
                 ??_Init_uC 0024                  _ThreeShort 01A9                  _ShortSound 016A  
                    saved_w 005E             ?_MeasureVoltage 0020     __end_of__initialization 0011  
               _MeasureTemp 00EB                 ?_InitTimer0 0020              __pcstackCOMMON 0000  
         __end_of_LongSound 0196                  __pbssBANK0 0029                  __pmaintext 01C3  
                __pintentry 0004                 ?_ThreeShort 0020                 ?_ShortSound 0020  
                   _TRISIO0 0428                     _TRISIO1 0429                     _TRISIO2 042A  
                   _TRISIO4 042C                     _TRISIO5 042D                     _Init_uC 0099  
         _Pin7ThermoControl 0013          ?_Pin7ThermoControl 0020         ??_Pin7ThermoControl 0028  
                   __ptext1 0013                     __ptext2 01A9                     __ptext3 0196  
                   __ptext4 016A                     __ptext5 0180                     __ptext6 00EB  
                   __ptext7 0151                     __ptext8 0099                     __ptext9 010D  
        _Pin6VoltageControl 0151         ?_Pin6VoltageControl 0020        end_of_initialization 0011  
 __end_of_Pin7ThermoControl 0099        ??_Pin6VoltageControl 0000            ??_MeasureVoltage 0023  
              ?_MeasureTemp 0020                ??_InitTimer0 0023         start_initialization 000C  
               __end_of_ISR 0151          __end_of_InitTimer0 01C3                   _LongSound 0180  
              ??_ThreeShort 0025                ??_ShortSound 0023                   ___latbits 0000  
             __pcstackBANK0 0020                  ?_LongSound 0020          __end_of_ThreeShort 01BB  
                  ?_Init_uC 0020          __end_of_ShortSound 0180           interrupt_function 0004  
         _ThreeLongOneShort 0196                 ??_LongSound 0023          ?_ThreeLongOneShort 0020  
       ??_ThreeLongOneShort 0025                    _adcValue 0029   __end_of_ThreeLongOneShort 01A9  
                  __ptext10 01BB                    __ptext11 012F               _highLevelTime 002B  
                  _pwmValue 002C                  _INTCONbits 000B                    intlevel1 0000  
                _OPTION_REG 0081  
