

Microchip MPLAB XC8 Assembler V2.36 build 20220127204148 
                                                                                               Sun Mar 17 21:55:28 2024

Microchip MPLAB XC8 C Compiler v2.36 (Free license) build 20220127204148 Og1 
     1                           	processor	12F675
     2                           	pagewidth 120
     3                           	opt	flic
     4                           	psect	idataBANK0,global,class=CODE,delta=2,noexec
     5                           	psect	cinit,global,class=CODE,merge=1,delta=2
     6                           	psect	bssBANK0,global,class=BANK0,space=1,delta=1,noexec
     7                           	psect	dataBANK0,global,class=BANK0,space=1,delta=1,noexec
     8                           	psect	cstackCOMMON,global,class=COMMON,space=1,delta=1,noexec
     9                           	psect	cstackBANK0,global,class=BANK0,space=1,delta=1,noexec
    10                           	psect	maintext,global,class=CODE,split=1,delta=2
    11                           	psect	text1,local,class=CODE,merge=1,delta=2
    12                           	psect	text2,local,class=CODE,merge=1,delta=2
    13                           	psect	text3,local,class=CODE,merge=1,delta=2
    14                           	psect	text4,local,class=CODE,merge=1,delta=2
    15                           	psect	text5,local,class=CODE,merge=1,delta=2
    16                           	psect	intentry,global,class=CODE,delta=2
    17                           	psect	text6,local,class=CODE,merge=1,delta=2
    18                           	psect	text7,local,class=CODE,merge=1,delta=2
    19                           	psect	text8,local,class=CODE,merge=1,delta=2
    20                           	psect	text9,local,class=CODE,merge=1,delta=2
    21                           	psect	text10,local,class=CODE,merge=1,delta=2
    22                           	psect	text11,local,class=CODE,merge=1,delta=2
    23                           	psect	text12,local,class=CODE,merge=1,delta=2
    24                           	psect	text13,local,class=CODE,merge=1,delta=2
    25                           	psect	text14,local,class=CODE,merge=1,delta=2
    26                           	psect	config,global,abs,ovrld,class=CONFIG,space=4,delta=2,noexec
    27                           	dabs	1,0x5E,2
    28  0000                     
    29                           ; Version 2.20
    30                           ; Generated 29/04/2020 GMT
    31                           ; 
    32                           ; Copyright © 2020, Microchip Technology Inc. and its subsidiaries ("Microchip")
    33                           ; All rights reserved.
    34                           ; 
    35                           ; This software is developed by Microchip Technology Inc. and its subsidiaries ("Microch
      +                          ip").
    36                           ; 
    37                           ; Redistribution and use in source and binary forms, with or without modification, are
    38                           ; permitted provided that the following conditions are met:
    39                           ; 
    40                           ;     1. Redistributions of source code must retain the above copyright notice, this lis
      +                          t of
    41                           ;        conditions and the following disclaimer.
    42                           ; 
    43                           ;     2. Redistributions in binary form must reproduce the above copyright notice, this 
      +                          list
    44                           ;        of conditions and the following disclaimer in the documentation and/or other
    45                           ;        materials provided with the distribution.
    46                           ; 
    47                           ;     3. Microchip's name may not be used to endorse or promote products derived from th
      +                          is
    48                           ;        software without specific prior written permission.
    49                           ; 
    50                           ; THIS SOFTWARE IS PROVIDED BY MICROCHIP "AS IS" AND ANY EXPRESS OR IMPLIED WARRANTIES,
    51                           ; INCLUDING, BUT NOT LIMITED TO, THE IMPLIED WARRANTIES OF MERCHANTABILITY AND FITNESS F
      +                          OR
    52                           ; PURPOSE ARE DISCLAIMED.  IN NO EVENT SHALL MICROCHIP BE LIABLE FOR ANY DIRECT, INDIREC
      +                          T,
    53                           ; INCIDENTAL, SPECIAL, EXEMPLARY, OR CONSEQUENTIAL DAMAGES (INCLUDING BUT NOT LIMITED TO
    54                           ; PROCUREMENT OF SUBSTITUTE GOODS OR SERVICES; LOSS OF USE, DATA OR PROFITS; OR BUSINESS
    55                           ; INTERRUPTION) HOWSOEVER CAUSED AND ON ANY THEORY OF LIABILITY, WHETHER IN CONTRACT, ST
      +                          RICT
    56                           ; LIABILITY, OR TORT (INCLUDING NEGLIGENCE OR OTHERWISE) ARISING IN ANY WAY OUT OF THE U
      +                          SE OF
    57                           ; THIS SOFTWARE, EVEN IF ADVISED OF THE POSSIBILITY OF SUCH DAMAGE.
    58                           ; 
    59                           ; 
    60                           ; Code-generator required, PIC12F675 Definitions
    61                           ; 
    62                           ; SFR Addresses
    63  0000                     	;# 
    64  0001                     	;# 
    65  0002                     	;# 
    66  0003                     	;# 
    67  0004                     	;# 
    68  0005                     	;# 
    69  000A                     	;# 
    70  000B                     	;# 
    71  000C                     	;# 
    72  000E                     	;# 
    73  000E                     	;# 
    74  000F                     	;# 
    75  0010                     	;# 
    76  0019                     	;# 
    77  001E                     	;# 
    78  001F                     	;# 
    79  0081                     	;# 
    80  0085                     	;# 
    81  008C                     	;# 
    82  008E                     	;# 
    83  0090                     	;# 
    84  0095                     	;# 
    85  0096                     	;# 
    86  0096                     	;# 
    87  0099                     	;# 
    88  009A                     	;# 
    89  009A                     	;# 
    90  009B                     	;# 
    91  009C                     	;# 
    92  009D                     	;# 
    93  009E                     	;# 
    94  009F                     	;# 
    95  0000                     	;# 
    96  0001                     	;# 
    97  0002                     	;# 
    98  0003                     	;# 
    99  0004                     	;# 
   100  0005                     	;# 
   101  000A                     	;# 
   102  000B                     	;# 
   103  000C                     	;# 
   104  000E                     	;# 
   105  000E                     	;# 
   106  000F                     	;# 
   107  0010                     	;# 
   108  0019                     	;# 
   109  001E                     	;# 
   110  001F                     	;# 
   111  0081                     	;# 
   112  0085                     	;# 
   113  008C                     	;# 
   114  008E                     	;# 
   115  0090                     	;# 
   116  0095                     	;# 
   117  0096                     	;# 
   118  0096                     	;# 
   119  0099                     	;# 
   120  009A                     	;# 
   121  009A                     	;# 
   122  009B                     	;# 
   123  009C                     	;# 
   124  009D                     	;# 
   125  009E                     	;# 
   126  009F                     	;# 
   127  0000                     	;# 
   128  0001                     	;# 
   129  0002                     	;# 
   130  0003                     	;# 
   131  0004                     	;# 
   132  0005                     	;# 
   133  000A                     	;# 
   134  000B                     	;# 
   135  000C                     	;# 
   136  000E                     	;# 
   137  000E                     	;# 
   138  000F                     	;# 
   139  0010                     	;# 
   140  0019                     	;# 
   141  001E                     	;# 
   142  001F                     	;# 
   143  0081                     	;# 
   144  0085                     	;# 
   145  008C                     	;# 
   146  008E                     	;# 
   147  0090                     	;# 
   148  0095                     	;# 
   149  0096                     	;# 
   150  0096                     	;# 
   151  0099                     	;# 
   152  009A                     	;# 
   153  009A                     	;# 
   154  009B                     	;# 
   155  009C                     	;# 
   156  009D                     	;# 
   157  009E                     	;# 
   158  009F                     	;# 
   159  0000                     	;# 
   160  0001                     	;# 
   161  0002                     	;# 
   162  0003                     	;# 
   163  0004                     	;# 
   164  0005                     	;# 
   165  000A                     	;# 
   166  000B                     	;# 
   167  000C                     	;# 
   168  000E                     	;# 
   169  000E                     	;# 
   170  000F                     	;# 
   171  0010                     	;# 
   172  0019                     	;# 
   173  001E                     	;# 
   174  001F                     	;# 
   175  0081                     	;# 
   176  0085                     	;# 
   177  008C                     	;# 
   178  008E                     	;# 
   179  0090                     	;# 
   180  0095                     	;# 
   181  0096                     	;# 
   182  0096                     	;# 
   183  0099                     	;# 
   184  009A                     	;# 
   185  009A                     	;# 
   186  009B                     	;# 
   187  009C                     	;# 
   188  009D                     	;# 
   189  009E                     	;# 
   190  009F                     	;# 
   191  0000                     	;# 
   192  0001                     	;# 
   193  0002                     	;# 
   194  0003                     	;# 
   195  0004                     	;# 
   196  0005                     	;# 
   197  000A                     	;# 
   198  000B                     	;# 
   199  000C                     	;# 
   200  000E                     	;# 
   201  000E                     	;# 
   202  000F                     	;# 
   203  0010                     	;# 
   204  0019                     	;# 
   205  001E                     	;# 
   206  001F                     	;# 
   207  0081                     	;# 
   208  0085                     	;# 
   209  008C                     	;# 
   210  008E                     	;# 
   211  0090                     	;# 
   212  0095                     	;# 
   213  0096                     	;# 
   214  0096                     	;# 
   215  0099                     	;# 
   216  009A                     	;# 
   217  009A                     	;# 
   218  009B                     	;# 
   219  009C                     	;# 
   220  009D                     	;# 
   221  009E                     	;# 
   222  009F                     	;# 
   223                           
   224                           	psect	idataBANK0
   225  0279                     __pidataBANK0:
   226                           
   227                           ;initializer for _errorType
   228  0279  3401               	retlw	1
   229                           
   230                           ;initializer for _measureType
   231  027A  3401               	retlw	1
   232  0005                     _GPIO	set	5
   233  0019                     _CMCON	set	25
   234  0010                     _T1CON	set	16
   235  001F                     _ADCON0	set	31
   236  001E                     _ADRESH	set	30
   237  000E                     _TMR1L	set	14
   238  000F                     _TMR1H	set	15
   239  0001                     _TMR0	set	1
   240  005F                     _GIE	set	95
   241  005E                     _PEIE	set	94
   242  00FE                     _VCFG	set	254
   243  005D                     _TMR0IE	set	93
   244  00F9                     _GO	set	249
   245  00FA                     _CHS0	set	250
   246  00FB                     _CHS1	set	251
   247  00FF                     _ADFM	set	255
   248  00F8                     _ADON	set	248
   249  002C                     _GP4	set	44
   250  002A                     _GP2	set	42
   251  002D                     _GP5	set	45
   252  0066                     _ADIF	set	102
   253  0060                     _TMR1IF	set	96
   254  005A                     _TMR0IF	set	90
   255  009F                     _ANSEL	set	159
   256  0085                     _TRISIO	set	133
   257  0099                     _VRCON	set	153
   258  0081                     _OPTION_REG	set	129
   259  009E                     _ADRESL	set	158
   260  0429                     _TRISIO1	set	1065
   261  0428                     _TRISIO0	set	1064
   262  042C                     _TRISIO4	set	1068
   263  042D                     _TRISIO5	set	1069
   264  042A                     _TRISIO2	set	1066
   265  0460                     _TMR1IE	set	1120
   266                           
   267                           	psect	cinit
   268  000E                     start_initialization:	
   269                           ; #config settings
   270                           
   271  000E                     __initialization:
   272                           
   273                           ; Initialize objects allocated to BANK0
   274  000E  2279               	fcall	__pidataBANK0	;fetch initializer
   275  000F  00AF               	movwf	__pdataBANK0& (0+127)
   276  0010  227A               	fcall	__pidataBANK0+1	;fetch initializer
   277  0011  00B0               	movwf	(__pdataBANK0+1)& (0+127)
   278                           
   279                           ; Clear objects allocated to BANK0
   280  0012  01A9               	clrf	__pbssBANK0& (0+127)
   281  0013  01AA               	clrf	(__pbssBANK0+1)& (0+127)
   282  0014  01AB               	clrf	(__pbssBANK0+2)& (0+127)
   283  0015  01AC               	clrf	(__pbssBANK0+3)& (0+127)
   284  0016  01AD               	clrf	(__pbssBANK0+4)& (0+127)
   285  0017  01AE               	clrf	(__pbssBANK0+5)& (0+127)
   286  0018                     end_of_initialization:	
   287                           ;End of C runtime variable initialization code
   288                           
   289  0018                     __end_of__initialization:
   290  0018  0183               	clrf	3
   291  0019  2A74               	ljmp	_main	;jump to C main() function
   292                           
   293                           	psect	bssBANK0
   294  0029                     __pbssBANK0:
   295  0029                     _adcValue:
   296  0029                     	ds	2
   297  002B                     _cnt1:
   298  002B                     	ds	2
   299  002D                     _soundModeSwitch:
   300  002D                     	ds	1
   301  002E                     _cnt0:
   302  002E                     	ds	1
   303                           
   304                           	psect	dataBANK0
   305  002F                     __pdataBANK0:
   306  002F                     _errorType:
   307  002F                     	ds	1
   308  0030                     _measureType:
   309  0030                     	ds	1
   310                           
   311                           	psect	cstackCOMMON
   312  0000                     __pcstackCOMMON:
   313  0000                     ??_TwoShortOneLong:
   314  0000                     ??_TwoShortTwoLong:	
   315                           ; 1 bytes @ 0x0
   316                           
   317  0000                     ??_ThreeShort:	
   318                           ; 1 bytes @ 0x0
   319                           
   320  0000                     ??_InitTimer0:	
   321                           ; 1 bytes @ 0x0
   322                           
   323  0000                     ??_InitTimer1:	
   324                           ; 1 bytes @ 0x0
   325                           
   326  0000                     ??_Init_uC:	
   327                           ; 1 bytes @ 0x0
   328                           
   329  0000                     ??_main:	
   330                           ; 1 bytes @ 0x0
   331                           
   332  0000                     ??_TimeOut:	
   333                           ; 1 bytes @ 0x0
   334                           
   335                           
   336                           	psect	cstackBANK0
   337  0020                     __pcstackBANK0:	
   338                           ; 1 bytes @ 0x0
   339                           
   340  0020                     ?_DataProcessing:
   341  0020                     ?_MuxTemp:	
   342                           ; 1 bytes @ 0x0
   343                           
   344  0020                     ??_MuxTemp:	
   345                           ; 1 bytes @ 0x0
   346                           
   347  0020                     ?_MuxVoltage:	
   348                           ; 1 bytes @ 0x0
   349                           
   350  0020                     ??_MuxVoltage:	
   351                           ; 1 bytes @ 0x0
   352                           
   353  0020                     ?_TwoShortOneLong:	
   354                           ; 1 bytes @ 0x0
   355                           
   356  0020                     ?_TwoShortTwoLong:	
   357                           ; 1 bytes @ 0x0
   358                           
   359  0020                     ?_ThreeShort:	
   360                           ; 1 bytes @ 0x0
   361                           
   362  0020                     ?_InitTimer0:	
   363                           ; 1 bytes @ 0x0
   364                           
   365  0020                     ?_InitTimer1:	
   366                           ; 1 bytes @ 0x0
   367                           
   368  0020                     ?_Init_uC:	
   369                           ; 1 bytes @ 0x0
   370                           
   371  0020                     ?_ISR:	
   372                           ; 1 bytes @ 0x0
   373                           
   374  0020                     ?_main:	
   375                           ; 1 bytes @ 0x0
   376                           
   377  0020                     ?_ShortSound:	
   378                           ; 1 bytes @ 0x0
   379                           
   380  0020                     ??_ShortSound:	
   381                           ; 1 bytes @ 0x0
   382                           
   383  0020                     ?_LongSound:	
   384                           ; 1 bytes @ 0x0
   385                           
   386  0020                     ?_TimeOut:	
   387                           ; 1 bytes @ 0x0
   388                           
   389  0020                     ?i1_LongSound:	
   390                           ; 1 bytes @ 0x0
   391                           
   392  0020                     ??i1_LongSound:	
   393                           ; 1 bytes @ 0x0
   394                           
   395                           
   396                           ; 1 bytes @ 0x0
   397  0020                     	ds	1
   398  0021                     ??_DataProcessing:
   399                           
   400                           ; 1 bytes @ 0x1
   401  0021                     	ds	2
   402  0023                     ??_ISR:
   403                           
   404                           ; 1 bytes @ 0x3
   405  0023                     	ds	5
   406  0028                     ??_LongSound:
   407                           
   408                           ; 1 bytes @ 0x8
   409  0028                     	ds	1
   410                           
   411                           	psect	maintext
   412  0274                     __pmaintext:	
   413 ;;
   414 ;;Main: autosize = 0, tempsize = 0, incstack = 0, save=0
   415 ;;
   416 ;; *************** function _main *****************
   417 ;; Defined at:
   418 ;;		line 65 in file "main.c"
   419 ;; Parameters:    Size  Location     Type
   420 ;;		None
   421 ;; Auto vars:     Size  Location     Type
   422 ;;		None
   423 ;; Return value:  Size  Location     Type
   424 ;;                  1    wreg      void 
   425 ;; Registers used:
   426 ;;		wreg, status,2, status,0, pclath, cstack
   427 ;; Tracked objects:
   428 ;;		On entry : B00/0
   429 ;;		On exit  : 0/0
   430 ;;		Unchanged: 0/0
   431 ;; Data sizes:     COMMON   BANK0
   432 ;;      Params:         0       0
   433 ;;      Locals:         0       0
   434 ;;      Temps:          0       0
   435 ;;      Totals:         0       0
   436 ;;Total ram usage:        0 bytes
   437 ;; Hardware stack levels required when called: 6
   438 ;; This function calls:
   439 ;;		_InitTimer0
   440 ;;		_InitTimer1
   441 ;;		_Init_uC
   442 ;; This function is called by:
   443 ;;		Startup code after reset
   444 ;; This function uses a non-reentrant model
   445 ;;
   446                           
   447  0274                     _main:	
   448                           ;psect for function _main
   449                           
   450  0274                     l1514:	
   451                           ;incstack = 0
   452                           ; Regs used in _main: [wreg+status,2+status,0+pclath+cstack]
   453                           
   454  0274  226C               	fcall	_InitTimer0
   455  0275  2261               	fcall	_InitTimer1
   456  0276  217A               	fcall	_Init_uC
   457  0277                     l115:
   458  0277                     l116:
   459  0277  2A77               	goto	l115
   460  0278  280D               	ljmp	start
   461  0279                     __end_of_main:
   462                           
   463                           	psect	text1
   464  017A                     __ptext1:	
   465 ;; *************** function _Init_uC *****************
   466 ;; Defined at:
   467 ;;		line 33 in file "init_periphery.c"
   468 ;; Parameters:    Size  Location     Type
   469 ;;		None
   470 ;; Auto vars:     Size  Location     Type
   471 ;;		None
   472 ;; Return value:  Size  Location     Type
   473 ;;                  1    wreg      void 
   474 ;; Registers used:
   475 ;;		wreg, status,2, status,0, pclath, cstack
   476 ;; Tracked objects:
   477 ;;		On entry : 0/0
   478 ;;		On exit  : 0/0
   479 ;;		Unchanged: 0/0
   480 ;; Data sizes:     COMMON   BANK0
   481 ;;      Params:         0       0
   482 ;;      Locals:         0       0
   483 ;;      Temps:          0       0
   484 ;;      Totals:         0       0
   485 ;;Total ram usage:        0 bytes
   486 ;; Hardware stack levels used: 1
   487 ;; Hardware stack levels required when called: 5
   488 ;; This function calls:
   489 ;;		_LongSound
   490 ;; This function is called by:
   491 ;;		_main
   492 ;; This function uses a non-reentrant model
   493 ;;
   494                           
   495  017A                     _Init_uC:	
   496                           ;psect for function _Init_uC
   497                           
   498  017A                     l1374:	
   499                           ;incstack = 0
   500                           ; Regs used in _Init_uC: [wreg+status,2+status,0+pclath+cstack]
   501                           
   502                           
   503                           ;init_periphery.c: 34:     CMCON = 0x07;
   504  017A  3007               	movlw	7
   505  017B  1283               	bcf	3,5	;RP0=0, select bank0
   506  017C  0099               	movwf	25	;volatile
   507  017D                     l1376:
   508                           
   509                           ;init_periphery.c: 35:     VRCON = 0x00;
   510  017D  1683               	bsf	3,5	;RP0=1, select bank1
   511  017E  0199               	clrf	25	;volatile
   512  017F                     l1378:
   513                           
   514                           ;init_periphery.c: 38:     TRISIO = 0;
   515  017F  0185               	clrf	5	;volatile
   516  0180                     l1380:
   517                           
   518                           ;init_periphery.c: 39:     GPIO = 0;
   519  0180  1283               	bcf	3,5	;RP0=0, select bank0
   520  0181  0185               	clrf	5	;volatile
   521  0182                     l1382:
   522                           
   523                           ;init_periphery.c: 42:     TRISIO2 = 0;
   524  0182  1683               	bsf	3,5	;RP0=1, select bank1
   525  0183  1105               	bcf	5,2	;volatile
   526  0184                     l1384:
   527                           
   528                           ;init_periphery.c: 43:     GP2 = 0;
   529  0184  1283               	bcf	3,5	;RP0=0, select bank0
   530  0185  1105               	bcf	5,2	;volatile
   531  0186                     l1386:
   532                           
   533                           ;init_periphery.c: 46:     TRISIO5 = 0;
   534  0186  1683               	bsf	3,5	;RP0=1, select bank1
   535  0187  1285               	bcf	5,5	;volatile
   536  0188                     l1388:
   537                           
   538                           ;init_periphery.c: 47:     GP5 = 1;
   539  0188  1283               	bcf	3,5	;RP0=0, select bank0
   540  0189  1685               	bsf	5,5	;volatile
   541  018A                     l1390:
   542                           
   543                           ;init_periphery.c: 50:     TRISIO4 = 0;
   544  018A  1683               	bsf	3,5	;RP0=1, select bank1
   545  018B  1205               	bcf	5,4	;volatile
   546  018C                     l1392:
   547                           
   548                           ;init_periphery.c: 51:     GP4 = 0;
   549  018C  1283               	bcf	3,5	;RP0=0, select bank0
   550  018D  1205               	bcf	5,4	;volatile
   551  018E                     l1394:
   552                           
   553                           ;init_periphery.c: 54:     VCFG = 1;
   554  018E  171F               	bsf	31,6	;volatile
   555  018F                     l1396:
   556                           
   557                           ;init_periphery.c: 55:     TRISIO0 = 1;
   558  018F  1683               	bsf	3,5	;RP0=1, select bank1
   559  0190  1405               	bsf	5,0	;volatile
   560  0191                     l1398:
   561                           
   562                           ;init_periphery.c: 56:     TRISIO1 = 1;
   563  0191  1485               	bsf	5,1	;volatile
   564  0192                     l1400:
   565                           
   566                           ;init_periphery.c: 58:     ANSEL = 0b00110011;
   567  0192  3033               	movlw	51
   568  0193  009F               	movwf	31	;volatile
   569  0194                     l1402:
   570                           
   571                           ;init_periphery.c: 60:     PEIE = 1;
   572  0194  170B               	bsf	11,6	;volatile
   573  0195                     l1404:
   574                           
   575                           ;init_periphery.c: 61:     GIE = 1;
   576  0195  178B               	bsf	11,7	;volatile
   577  0196                     l1406:
   578                           
   579                           ;init_periphery.c: 63:     LongSound();
   580  0196  20EA               	fcall	_LongSound
   581  0197                     l1408:
   582                           
   583                           ;init_periphery.c: 64:     adcValue = 0;
   584  0197  1283               	bcf	3,5	;RP0=0, select bank0
   585  0198  01A9               	clrf	_adcValue
   586  0199  01AA               	clrf	_adcValue+1
   587  019A                     l1410:
   588                           
   589                           ;init_periphery.c: 66:     ADCON0 = 0;
   590  019A  019F               	clrf	31	;volatile
   591  019B                     l1412:
   592                           
   593                           ;init_periphery.c: 67:     ADON = 1;
   594  019B  141F               	bsf	31,0	;volatile
   595  019C                     l1414:
   596                           
   597                           ;init_periphery.c: 68:     ADFM = 1;
   598  019C  179F               	bsf	31,7	;volatile
   599  019D                     l1416:
   600                           
   601                           ;init_periphery.c: 69:     CHS1 = 0;
   602  019D  119F               	bcf	31,3	;volatile
   603  019E                     l1418:
   604                           
   605                           ;init_periphery.c: 70:     CHS0 = 1;
   606  019E  151F               	bsf	31,2	;volatile
   607  019F                     l1420:
   608                           
   609                           ;init_periphery.c: 71:     measureType = 1;
   610  019F  01B0               	clrf	_measureType
   611  01A0  0AB0               	incf	_measureType,f
   612  01A1                     l1422:
   613                           
   614                           ;init_periphery.c: 72:     ADIF = 0;
   615  01A1  130C               	bcf	12,6	;volatile
   616  01A2                     l1424:
   617                           
   618                           ;init_periphery.c: 73:     GO = 1;
   619  01A2  149F               	bsf	31,1	;volatile
   620  01A3                     l246:
   621  01A3  0008               	return
   622  01A4                     __end_of_Init_uC:
   623                           
   624                           	psect	text2
   625  00EA                     __ptext2:	
   626 ;; *************** function _LongSound *****************
   627 ;; Defined at:
   628 ;;		line 17 in file "sounds.c"
   629 ;; Parameters:    Size  Location     Type
   630 ;;		None
   631 ;; Auto vars:     Size  Location     Type
   632 ;;		None
   633 ;; Return value:  Size  Location     Type
   634 ;;                  1    wreg      void 
   635 ;; Registers used:
   636 ;;		wreg, status,2, status,0
   637 ;; Tracked objects:
   638 ;;		On entry : 0/0
   639 ;;		On exit  : 0/0
   640 ;;		Unchanged: 0/0
   641 ;; Data sizes:     COMMON   BANK0
   642 ;;      Params:         0       0
   643 ;;      Locals:         0       0
   644 ;;      Temps:          0       1
   645 ;;      Totals:         0       1
   646 ;;Total ram usage:        1 bytes
   647 ;; Hardware stack levels used: 1
   648 ;; Hardware stack levels required when called: 4
   649 ;; This function calls:
   650 ;;		Nothing
   651 ;; This function is called by:
   652 ;;		_Init_uC
   653 ;; This function uses a non-reentrant model
   654 ;;
   655                           
   656  00EA                     _LongSound:	
   657                           ;psect for function _LongSound
   658                           
   659  00EA                     l1286:	
   660                           ;incstack = 0
   661                           ; Regs used in _LongSound: [wreg+status,2+status,0]
   662                           
   663                           
   664                           ;sounds.c: 18:    if(cnt1 <= 200) GP2 = 1;
   665  00EA  3000               	movlw	0
   666  00EB  1283               	bcf	3,5	;RP0=0, select bank0
   667  00EC  022C               	subwf	_cnt1+1,w
   668  00ED  30C9               	movlw	201
   669  00EE  1903               	skipnz
   670  00EF  022B               	subwf	_cnt1,w
   671  00F0  1803               	skipnc
   672  00F1  28F3               	goto	u661
   673  00F2  28F4               	goto	u660
   674  00F3                     u661:
   675  00F3  28F6               	goto	l1290
   676  00F4                     u660:
   677  00F4                     l1288:
   678  00F4  1505               	bsf	5,2	;volatile
   679  00F5  2919               	goto	l140
   680  00F6                     l1290:
   681  00F6  3000               	movlw	0
   682  00F7  022C               	subwf	_cnt1+1,w
   683  00F8  30C9               	movlw	201
   684  00F9  1903               	skipnz
   685  00FA  022B               	subwf	_cnt1,w
   686  00FB  1C03               	skipc
   687  00FC  28FE               	goto	u671
   688  00FD  28FF               	goto	u670
   689  00FE                     u671:
   690  00FE  290A               	goto	l1296
   691  00FF                     u670:
   692  00FF                     l1292:
   693  00FF  3001               	movlw	1
   694  0100  022C               	subwf	_cnt1+1,w
   695  0101  305F               	movlw	95
   696  0102  1903               	skipnz
   697  0103  022B               	subwf	_cnt1,w
   698  0104  1803               	skipnc
   699  0105  2907               	goto	u681
   700  0106  2908               	goto	u680
   701  0107                     u681:
   702  0107  290A               	goto	l1296
   703  0108                     u680:
   704  0108                     l1294:
   705  0108  1105               	bcf	5,2	;volatile
   706  0109  2919               	goto	l140
   707  010A                     l1296:
   708  010A  3001               	movlw	1
   709  010B  022C               	subwf	_cnt1+1,w
   710  010C  305F               	movlw	95
   711  010D  1903               	skipnz
   712  010E  022B               	subwf	_cnt1,w
   713  010F  1C03               	skipc
   714  0110  2912               	goto	u691
   715  0111  2913               	goto	u690
   716  0112                     u691:
   717  0112  2919               	goto	l140
   718  0113                     u690:
   719  0113                     l1298:
   720                           
   721                           ;sounds.c: 21:       cnt1 = 0;
   722  0113  01AB               	clrf	_cnt1
   723  0114  01AC               	clrf	_cnt1+1
   724  0115                     l1300:
   725                           
   726                           ;sounds.c: 22:       soundModeSwitch++;
   727  0115  3001               	movlw	1
   728  0116  00A8               	movwf	??_LongSound
   729  0117  0828               	movf	??_LongSound,w
   730  0118  07AD               	addwf	_soundModeSwitch,f	;volatile
   731  0119                     l140:
   732  0119  0008               	return
   733  011A                     __end_of_LongSound:
   734                           
   735                           	psect	text3
   736  0261                     __ptext3:	
   737 ;; *************** function _InitTimer1 *****************
   738 ;; Defined at:
   739 ;;		line 21 in file "init_periphery.c"
   740 ;; Parameters:    Size  Location     Type
   741 ;;		None
   742 ;; Auto vars:     Size  Location     Type
   743 ;;		None
   744 ;; Return value:  Size  Location     Type
   745 ;;                  1    wreg      void 
   746 ;; Registers used:
   747 ;;		wreg
   748 ;; Tracked objects:
   749 ;;		On entry : 0/0
   750 ;;		On exit  : 0/0
   751 ;;		Unchanged: 0/0
   752 ;; Data sizes:     COMMON   BANK0
   753 ;;      Params:         0       0
   754 ;;      Locals:         0       0
   755 ;;      Temps:          0       0
   756 ;;      Totals:         0       0
   757 ;;Total ram usage:        0 bytes
   758 ;; Hardware stack levels used: 1
   759 ;; Hardware stack levels required when called: 4
   760 ;; This function calls:
   761 ;;		Nothing
   762 ;; This function is called by:
   763 ;;		_main
   764 ;; This function uses a non-reentrant model
   765 ;;
   766                           
   767  0261                     _InitTimer1:	
   768                           ;psect for function _InitTimer1
   769                           
   770  0261                     l1368:	
   771                           ;incstack = 0
   772                           ; Regs used in _InitTimer1: [wreg]
   773                           
   774                           
   775                           ;init_periphery.c: 23:      TMR1H = 0xFC;
   776  0261  30FC               	movlw	252
   777  0262  1283               	bcf	3,5	;RP0=0, select bank0
   778  0263  008F               	movwf	15	;volatile
   779                           
   780                           ;init_periphery.c: 24:   TMR1L = 0x17;
   781  0264  3017               	movlw	23
   782  0265  008E               	movwf	14	;volatile
   783                           
   784                           ;init_periphery.c: 26:   T1CON = 0x01;
   785  0266  3001               	movlw	1
   786  0267  0090               	movwf	16	;volatile
   787  0268                     l1370:
   788                           
   789                           ;init_periphery.c: 28:   TMR1IF = 0;
   790  0268  100C               	bcf	12,0	;volatile
   791  0269                     l1372:
   792                           
   793                           ;init_periphery.c: 29:   TMR1IE = 1;
   794  0269  1683               	bsf	3,5	;RP0=1, select bank1
   795  026A  140C               	bsf	12,0	;volatile
   796  026B                     l243:
   797  026B  0008               	return
   798  026C                     __end_of_InitTimer1:
   799                           
   800                           	psect	text4
   801  026C                     __ptext4:	
   802 ;; *************** function _InitTimer0 *****************
   803 ;; Defined at:
   804 ;;		line 12 in file "init_periphery.c"
   805 ;; Parameters:    Size  Location     Type
   806 ;;		None
   807 ;; Auto vars:     Size  Location     Type
   808 ;;		None
   809 ;; Return value:  Size  Location     Type
   810 ;;                  1    wreg      void 
   811 ;; Registers used:
   812 ;;		wreg, status,2
   813 ;; Tracked objects:
   814 ;;		On entry : 0/0
   815 ;;		On exit  : 0/0
   816 ;;		Unchanged: 0/0
   817 ;; Data sizes:     COMMON   BANK0
   818 ;;      Params:         0       0
   819 ;;      Locals:         0       0
   820 ;;      Temps:          0       0
   821 ;;      Totals:         0       0
   822 ;;Total ram usage:        0 bytes
   823 ;; Hardware stack levels used: 1
   824 ;; Hardware stack levels required when called: 4
   825 ;; This function calls:
   826 ;;		Nothing
   827 ;; This function is called by:
   828 ;;		_main
   829 ;; This function uses a non-reentrant model
   830 ;;
   831                           
   832  026C                     _InitTimer0:	
   833                           ;psect for function _InitTimer0
   834                           
   835  026C                     l1360:	
   836                           ;incstack = 0
   837                           ; Regs used in _InitTimer0: [wreg+status,2]
   838                           
   839                           
   840                           ;init_periphery.c: 14:     OPTION_REG = 0b11000001;
   841  026C  30C1               	movlw	193
   842  026D  1683               	bsf	3,5	;RP0=1, select bank1
   843  026E  0081               	movwf	1	;volatile
   844  026F                     l1362:
   845                           
   846                           ;init_periphery.c: 15:     TMR0 = 0;
   847  026F  1283               	bcf	3,5	;RP0=0, select bank0
   848  0270  0181               	clrf	1	;volatile
   849  0271                     l1364:
   850                           
   851                           ;init_periphery.c: 16:     TMR0IF = 0;
   852  0271  110B               	bcf	11,2	;volatile
   853  0272                     l1366:
   854                           
   855                           ;init_periphery.c: 17:     TMR0IE = 1;
   856  0272  168B               	bsf	11,5	;volatile
   857  0273                     l240:
   858  0273  0008               	return
   859  0274                     __end_of_InitTimer0:
   860                           
   861                           	psect	text5
   862  001A                     __ptext5:	
   863 ;; *************** function _ISR *****************
   864 ;; Defined at:
   865 ;;		line 18 in file "interrupt.c"
   866 ;; Parameters:    Size  Location     Type
   867 ;;		None
   868 ;; Auto vars:     Size  Location     Type
   869 ;;		None
   870 ;; Return value:  Size  Location     Type
   871 ;;                  1    wreg      void 
   872 ;; Registers used:
   873 ;;		wreg, fsr0l, fsr0h, status,2, status,0, pclath, cstack
   874 ;; Tracked objects:
   875 ;;		On entry : 0/0
   876 ;;		On exit  : 0/0
   877 ;;		Unchanged: 0/0
   878 ;; Data sizes:     COMMON   BANK0
   879 ;;      Params:         0       0
   880 ;;      Locals:         0       0
   881 ;;      Temps:          0       5
   882 ;;      Totals:         0       5
   883 ;;Total ram usage:        5 bytes
   884 ;; Hardware stack levels used: 1
   885 ;; Hardware stack levels required when called: 3
   886 ;; This function calls:
   887 ;;		_DataProcessing
   888 ;;		_MuxTemp
   889 ;;		_MuxVoltage
   890 ;; This function is called by:
   891 ;;		Interrupt level 1
   892 ;; This function uses a non-reentrant model
   893 ;;
   894                           
   895  001A                     _ISR:	
   896                           ;psect for function _ISR
   897                           
   898  001A                     i1l1426:
   899                           
   900                           ;interrupt.c: 22:     if (TMR0IF == 1){
   901  001A  1D0B               	btfss	11,2	;volatile
   902  001B  281D               	goto	u70_21
   903  001C  281E               	goto	u70_20
   904  001D                     u70_21:
   905  001D  2825               	goto	i1l1434
   906  001E                     u70_20:
   907  001E                     i1l1428:
   908                           
   909                           ;interrupt.c: 24:         TMR0 = 6;
   910  001E  3006               	movlw	6
   911  001F  0081               	movwf	1	;volatile
   912  0020                     i1l1430:
   913                           
   914                           ;interrupt.c: 25:  cnt0++;
   915  0020  3001               	movlw	1
   916  0021  00A3               	movwf	??_ISR
   917  0022  0823               	movf	??_ISR,w
   918  0023  07AE               	addwf	_cnt0,f
   919  0024                     i1l1432:
   920                           
   921                           ;interrupt.c: 26:  TMR0IF = 0;
   922  0024  110B               	bcf	11,2	;volatile
   923  0025                     i1l1434:
   924                           
   925                           ;interrupt.c: 31:     if (TMR1IF == 1){
   926  0025  1C0C               	btfss	12,0	;volatile
   927  0026  2828               	goto	u71_21
   928  0027  2829               	goto	u71_20
   929  0028                     u71_21:
   930  0028  2834               	goto	i1l1440
   931  0029                     u71_20:
   932  0029                     i1l1436:
   933                           
   934                           ;interrupt.c: 33:   TMR1H = 0xFC;
   935  0029  30FC               	movlw	252
   936  002A  008F               	movwf	15	;volatile
   937                           
   938                           ;interrupt.c: 34:   TMR1L = 0x17;
   939  002B  3017               	movlw	23
   940  002C  008E               	movwf	14	;volatile
   941                           
   942                           ;interrupt.c: 36:          cnt1++;
   943  002D  3001               	movlw	1
   944  002E  07AB               	addwf	_cnt1,f
   945  002F  1803               	skipnc
   946  0030  0AAC               	incf	_cnt1+1,f
   947  0031  3000               	movlw	0
   948  0032  07AC               	addwf	_cnt1+1,f
   949  0033                     i1l1438:
   950                           
   951                           ;interrupt.c: 38:          TMR1IF = 0;
   952  0033  100C               	bcf	12,0	;volatile
   953  0034                     i1l1440:
   954                           
   955                           ;interrupt.c: 43:    if (ADIF == 1){
   956  0034  1F0C               	btfss	12,6	;volatile
   957  0035  2837               	goto	u72_21
   958  0036  2838               	goto	u72_20
   959  0037                     u72_21:
   960  0037  28E0               	goto	i1l88
   961  0038                     u72_20:
   962  0038                     i1l1442:
   963                           
   964                           ;interrupt.c: 44:      adcValue = (uint16_t) ((ADRESH << 8) + ADRESL);
   965  0038  081E               	movf	30,w	;volatile
   966  0039  00AA               	movwf	_adcValue+1
   967  003A  1683               	bsf	3,5	;RP0=1, select bank1
   968  003B  081E               	movf	30,w	;volatile
   969  003C  1283               	bcf	3,5	;RP0=0, select bank0
   970  003D  00A9               	movwf	_adcValue
   971                           
   972                           ;interrupt.c: 46:       switch (measureType){
   973  003E  28D0               	goto	i1l1506
   974  003F                     i1l1444:
   975                           
   976                           ;interrupt.c: 49:  if ((adcValue > 190) && (adcValue < 285) && (errorType == 1)){
   977  003F  3000               	movlw	0
   978  0040  022A               	subwf	_adcValue+1,w
   979  0041  30BF               	movlw	191
   980  0042  1903               	skipnz
   981  0043  0229               	subwf	_adcValue,w
   982  0044  1C03               	skipc
   983  0045  2847               	goto	u73_21
   984  0046  2848               	goto	u73_20
   985  0047                     u73_21:
   986  0047  2859               	goto	i1l1452
   987  0048                     u73_20:
   988  0048                     i1l1446:
   989  0048  3001               	movlw	1
   990  0049  022A               	subwf	_adcValue+1,w
   991  004A  301D               	movlw	29
   992  004B  1903               	skipnz
   993  004C  0229               	subwf	_adcValue,w
   994  004D  1803               	skipnc
   995  004E  2850               	goto	u74_21
   996  004F  2851               	goto	u74_20
   997  0050                     u74_21:
   998  0050  2859               	goto	i1l1452
   999  0051                     u74_20:
  1000  0051                     i1l1448:
  1001  0051  032F               	decf	_errorType,w	;volatile
  1002  0052  1D03               	btfss	3,2
  1003  0053  2855               	goto	u75_21
  1004  0054  2856               	goto	u75_20
  1005  0055                     u75_21:
  1006  0055  2859               	goto	i1l1452
  1007  0056                     u75_20:
  1008  0056                     i1l1450:
  1009                           
  1010                           ;interrupt.c: 50:            GP5 = 0;
  1011  0056  1285               	bcf	5,5	;volatile
  1012                           
  1013                           ;interrupt.c: 51:     GP2 = 0;
  1014  0057  1105               	bcf	5,2	;volatile
  1015                           
  1016                           ;interrupt.c: 52:            }
  1017  0058  2876               	goto	i1l1464
  1018  0059                     i1l1452:
  1019  0059  3000               	movlw	0
  1020  005A  022A               	subwf	_adcValue+1,w
  1021  005B  30BF               	movlw	191
  1022  005C  1903               	skipnz
  1023  005D  0229               	subwf	_adcValue,w
  1024  005E  1803               	skipnc
  1025  005F  2861               	goto	u76_21
  1026  0060  2862               	goto	u76_20
  1027  0061                     u76_21:
  1028  0061  2868               	goto	i1l1458
  1029  0062                     u76_20:
  1030  0062                     i1l1454:
  1031                           
  1032                           ;interrupt.c: 54:            GP5 = 1;
  1033  0062  1685               	bsf	5,5	;volatile
  1034  0063                     i1l1456:
  1035                           
  1036                           ;interrupt.c: 55:     errorType = 2;
  1037  0063  3002               	movlw	2
  1038  0064  00A3               	movwf	??_ISR
  1039  0065  0823               	movf	??_ISR,w
  1040  0066  00AF               	movwf	_errorType	;volatile
  1041                           
  1042                           ;interrupt.c: 56:            }
  1043  0067  2876               	goto	i1l1464
  1044  0068                     i1l1458:
  1045  0068  3001               	movlw	1
  1046  0069  022A               	subwf	_adcValue+1,w
  1047  006A  301D               	movlw	29
  1048  006B  1903               	skipnz
  1049  006C  0229               	subwf	_adcValue,w
  1050  006D  1C03               	skipc
  1051  006E  2870               	goto	u77_21
  1052  006F  2871               	goto	u77_20
  1053  0070                     u77_21:
  1054  0070  2876               	goto	i1l1464
  1055  0071                     u77_20:
  1056  0071                     i1l1460:
  1057                           
  1058                           ;interrupt.c: 58:            GP5 = 1;
  1059  0071  1685               	bsf	5,5	;volatile
  1060  0072                     i1l1462:
  1061                           
  1062                           ;interrupt.c: 59:     errorType = 3;
  1063  0072  3003               	movlw	3
  1064  0073  00A3               	movwf	??_ISR
  1065  0074  0823               	movf	??_ISR,w
  1066  0075  00AF               	movwf	_errorType	;volatile
  1067  0076                     i1l1464:
  1068                           
  1069                           ;interrupt.c: 62:        if(errorType != 1){
  1070  0076  032F               	decf	_errorType,w	;volatile
  1071  0077  1903               	btfsc	3,2
  1072  0078  287A               	goto	u78_21
  1073  0079  287B               	goto	u78_20
  1074  007A                     u78_21:
  1075  007A  2882               	goto	i1l1470
  1076  007B                     u78_20:
  1077  007B                     i1l1466:
  1078                           
  1079                           ;interrupt.c: 64:      DataProcessing();}
  1080  007B  21CB               	fcall	_DataProcessing
  1081  007C                     i1l1468:
  1082  007C  1283               	bcf	3,5	;RP0=0, select bank0
  1083  007D  032F               	decf	_errorType,w	;volatile
  1084  007E  1D03               	btfss	3,2
  1085  007F  2881               	goto	u79_21
  1086  0080  2882               	goto	u79_20
  1087  0081                     u79_21:
  1088  0081  287B               	goto	i1l1466
  1089  0082                     u79_20:
  1090  0082                     i1l1470:
  1091                           
  1092                           ;interrupt.c: 68:           MuxTemp();
  1093  0082  222D               	fcall	_MuxTemp
  1094                           
  1095                           ;interrupt.c: 69:         break;
  1096  0083  28E0               	goto	i1l88
  1097  0084                     i1l1472:
  1098                           
  1099                           ;interrupt.c: 74:       if (adcValue < 200){
  1100  0084  3000               	movlw	0
  1101  0085  022A               	subwf	_adcValue+1,w
  1102  0086  30C8               	movlw	200
  1103  0087  1903               	skipnz
  1104  0088  0229               	subwf	_adcValue,w
  1105  0089  1803               	skipnc
  1106  008A  288C               	goto	u80_21
  1107  008B  288D               	goto	u80_20
  1108  008C                     u80_21:
  1109  008C  2894               	goto	i1l1478
  1110  008D                     u80_20:
  1111  008D                     i1l1474:
  1112                           
  1113                           ;interrupt.c: 75:         GP5 = 1;
  1114  008D  1685               	bsf	5,5	;volatile
  1115                           
  1116                           ;interrupt.c: 76:         GP4 = 0;
  1117  008E  1205               	bcf	5,4	;volatile
  1118  008F                     i1l1476:
  1119                           
  1120                           ;interrupt.c: 77:                   errorType = 1;
  1121  008F  3001               	movlw	1
  1122  0090  00A3               	movwf	??_ISR
  1123  0091  0823               	movf	??_ISR,w
  1124  0092  00AF               	movwf	_errorType	;volatile
  1125                           
  1126                           ;interrupt.c: 78:     }
  1127  0093  28C2               	goto	i1l1496
  1128  0094                     i1l1478:
  1129  0094  3000               	movlw	0
  1130  0095  022A               	subwf	_adcValue+1,w
  1131  0096  30C8               	movlw	200
  1132  0097  1903               	skipnz
  1133  0098  0229               	subwf	_adcValue,w
  1134  0099  1C03               	skipc
  1135  009A  289C               	goto	u81_21
  1136  009B  289D               	goto	u81_20
  1137  009C                     u81_21:
  1138  009C  28A8               	goto	i1l1486
  1139  009D                     u81_20:
  1140  009D                     i1l1480:
  1141  009D  3003               	movlw	3
  1142  009E  022A               	subwf	_adcValue+1,w
  1143  009F  30A2               	movlw	162
  1144  00A0  1903               	skipnz
  1145  00A1  0229               	subwf	_adcValue,w
  1146  00A2  1803               	skipnc
  1147  00A3  28A5               	goto	u82_21
  1148  00A4  28A6               	goto	u82_20
  1149  00A5                     u82_21:
  1150  00A5  28A8               	goto	i1l1486
  1151  00A6                     u82_20:
  1152  00A6                     i1l1482:
  1153                           
  1154                           ;interrupt.c: 81:           GP4 = 0;
  1155  00A6  1205               	bcf	5,4	;volatile
  1156  00A7  288F               	goto	i1l1476
  1157  00A8                     i1l1486:
  1158  00A8  3003               	movlw	3
  1159  00A9  022A               	subwf	_adcValue+1,w
  1160  00AA  30A2               	movlw	162
  1161  00AB  1903               	skipnz
  1162  00AC  0229               	subwf	_adcValue,w
  1163  00AD  1C03               	skipc
  1164  00AE  28B0               	goto	u83_21
  1165  00AF  28B1               	goto	u83_20
  1166  00B0                     u83_21:
  1167  00B0  28BC               	goto	i1l82
  1168  00B1                     u83_20:
  1169  00B1                     i1l1488:
  1170  00B1  3003               	movlw	3
  1171  00B2  022A               	subwf	_adcValue+1,w
  1172  00B3  30CA               	movlw	202
  1173  00B4  1903               	skipnz
  1174  00B5  0229               	subwf	_adcValue,w
  1175  00B6  1803               	skipnc
  1176  00B7  28B9               	goto	u84_21
  1177  00B8  28BA               	goto	u84_20
  1178  00B9                     u84_21:
  1179  00B9  28BC               	goto	i1l82
  1180  00BA                     u84_20:
  1181  00BA                     i1l1490:
  1182                           
  1183                           ;interrupt.c: 86:           GP4 = 1;
  1184  00BA  1605               	bsf	5,4	;volatile
  1185  00BB  288F               	goto	i1l1476
  1186  00BC                     i1l82:	
  1187                           ;interrupt.c: 89:              else {
  1188                           
  1189                           
  1190                           ;interrupt.c: 90:           GP4 = 1;
  1191  00BC  1605               	bsf	5,4	;volatile
  1192                           
  1193                           ;interrupt.c: 91:                  GP5 = 1;
  1194  00BD  1685               	bsf	5,5	;volatile
  1195  00BE                     i1l1494:
  1196                           
  1197                           ;interrupt.c: 92:                         errorType = 5;
  1198  00BE  3005               	movlw	5
  1199  00BF  00A3               	movwf	??_ISR
  1200  00C0  0823               	movf	??_ISR,w
  1201  00C1  00AF               	movwf	_errorType	;volatile
  1202  00C2                     i1l1496:
  1203                           
  1204                           ;interrupt.c: 96:         if(errorType != 1){
  1205  00C2  032F               	decf	_errorType,w	;volatile
  1206  00C3  1903               	btfsc	3,2
  1207  00C4  28C6               	goto	u85_21
  1208  00C5  28C7               	goto	u85_20
  1209  00C6                     u85_21:
  1210  00C6  28CE               	goto	i1l1502
  1211  00C7                     u85_20:
  1212  00C7                     i1l1498:
  1213                           
  1214                           ;interrupt.c: 98:      DataProcessing();}
  1215  00C7  21CB               	fcall	_DataProcessing
  1216  00C8                     i1l1500:
  1217  00C8  1283               	bcf	3,5	;RP0=0, select bank0
  1218  00C9  032F               	decf	_errorType,w	;volatile
  1219  00CA  1D03               	btfss	3,2
  1220  00CB  28CD               	goto	u86_21
  1221  00CC  28CE               	goto	u86_20
  1222  00CD                     u86_21:
  1223  00CD  28C7               	goto	i1l1498
  1224  00CE                     u86_20:
  1225  00CE                     i1l1502:
  1226                           
  1227                           ;interrupt.c: 102:      MuxVoltage();
  1228  00CE  2240               	fcall	_MuxVoltage
  1229                           
  1230                           ;interrupt.c: 105:  break;
  1231  00CF  28E0               	goto	i1l88
  1232  00D0                     i1l1506:
  1233  00D0  0830               	movf	_measureType,w
  1234  00D1  00A3               	movwf	??_ISR
  1235  00D2  01A4               	clrf	??_ISR+1
  1236                           
  1237                           ; Switch on 2 bytes has been partitioned into a top level switch of size 1, and 1 sub-sw
      +                          itches
  1238                           ; Switch size 1, requested type "simple"
  1239                           ; Number of cases is 1, Range of values is 0 to 0
  1240                           ; switch strategies available:
  1241                           ; Name         Instructions Cycles
  1242                           ; simple_byte            4     3 (average)
  1243                           ; direct_byte            7     6 (fixed)
  1244                           ; jumptable            260     6 (fixed)
  1245                           ;	Chosen strategy is simple_byte
  1246  00D3  0824               	movf	??_ISR+1,w
  1247  00D4  3A00               	xorlw	0	; case 0
  1248  00D5  1903               	skipnz
  1249  00D6  28D8               	goto	i1l1566
  1250  00D7  28E0               	goto	i1l88
  1251  00D8                     i1l1566:
  1252                           
  1253                           ; Switch size 1, requested type "simple"
  1254                           ; Number of cases is 2, Range of values is 1 to 2
  1255                           ; switch strategies available:
  1256                           ; Name         Instructions Cycles
  1257                           ; simple_byte            7     4 (average)
  1258                           ; direct_byte           11     9 (fixed)
  1259                           ; jumptable            263     9 (fixed)
  1260                           ;	Chosen strategy is simple_byte
  1261  00D8  0823               	movf	??_ISR,w
  1262  00D9  3A01               	xorlw	1	; case 1
  1263  00DA  1903               	skipnz
  1264  00DB  283F               	goto	i1l1444
  1265  00DC  3A03               	xorlw	3	; case 2
  1266  00DD  1903               	skipnz
  1267  00DE  2884               	goto	i1l1472
  1268  00DF  28E0               	goto	i1l88
  1269  00E0                     i1l88:
  1270  00E0  1283               	bcf	3,5	;RP0=0, select bank0
  1271  00E1  0827               	movf	??_ISR+4,w
  1272  00E2  008A               	movwf	10
  1273  00E3  0826               	movf	??_ISR+3,w
  1274  00E4  0084               	movwf	4
  1275  00E5  0E25               	swapf	??_ISR+2,w
  1276  00E6  0083               	movwf	3
  1277  00E7  0EDE               	swapf	btemp,f
  1278  00E8  0E5E               	swapf	btemp,w
  1279  00E9  0009               	retfie
  1280  00EA                     __end_of_ISR:
  1281                           
  1282                           	psect	intentry
  1283  0004                     __pintentry:	
  1284                           ;incstack = 0
  1285                           ; Regs used in _ISR: [wreg-fsr0h+status,2+status,0+pclath+cstack]
  1286                           
  1287  0004                     interrupt_function:
  1288  005E                     saved_w	set	btemp
  1289  0004  00DE               	movwf	btemp
  1290  0005  0E03               	swapf	3,w
  1291  0006  1283               	bcf	3,5	;RP0=0, select bank0
  1292  0007  00A5               	movwf	??_ISR+2
  1293  0008  0804               	movf	4,w
  1294  0009  00A6               	movwf	??_ISR+3
  1295  000A  080A               	movf	10,w
  1296  000B  00A7               	movwf	??_ISR+4
  1297  000C  281A               	ljmp	_ISR
  1298                           
  1299                           	psect	text6
  1300  0240                     __ptext6:	
  1301 ;; *************** function _MuxVoltage *****************
  1302 ;; Defined at:
  1303 ;;		line 115 in file "interrupt.c"
  1304 ;; Parameters:    Size  Location     Type
  1305 ;;		None
  1306 ;; Auto vars:     Size  Location     Type
  1307 ;;		None
  1308 ;; Return value:  Size  Location     Type
  1309 ;;                  1    wreg      void 
  1310 ;; Registers used:
  1311 ;;		wreg, status,2
  1312 ;; Tracked objects:
  1313 ;;		On entry : 0/0
  1314 ;;		On exit  : 0/0
  1315 ;;		Unchanged: 0/0
  1316 ;; Data sizes:     COMMON   BANK0
  1317 ;;      Params:         0       0
  1318 ;;      Locals:         0       0
  1319 ;;      Temps:          0       1
  1320 ;;      Totals:         0       1
  1321 ;;Total ram usage:        1 bytes
  1322 ;; Hardware stack levels used: 1
  1323 ;; This function calls:
  1324 ;;		Nothing
  1325 ;; This function is called by:
  1326 ;;		_ISR
  1327 ;; This function uses a non-reentrant model
  1328 ;;
  1329                           
  1330  0240                     _MuxVoltage:	
  1331                           ;psect for function _MuxVoltage
  1332                           
  1333  0240                     i1l1342:	
  1334                           ;incstack = 0
  1335                           ; Regs used in _MuxVoltage: [wreg+status,2]
  1336                           
  1337                           
  1338                           ;interrupt.c: 116:        ADCON0 = 0;
  1339  0240  1283               	bcf	3,5	;RP0=0, select bank0
  1340  0241  019F               	clrf	31	;volatile
  1341  0242                     i1l1344:
  1342                           
  1343                           ;interrupt.c: 117:        ADON = 1;
  1344  0242  141F               	bsf	31,0	;volatile
  1345  0243                     i1l1346:
  1346                           
  1347                           ;interrupt.c: 118:        ADFM = 1;
  1348  0243  179F               	bsf	31,7	;volatile
  1349  0244                     i1l1348:
  1350                           
  1351                           ;interrupt.c: 119:        CHS1 = 0;
  1352  0244  119F               	bcf	31,3	;volatile
  1353  0245                     i1l1350:
  1354                           
  1355                           ;interrupt.c: 120:        CHS0 = 1;
  1356  0245  151F               	bsf	31,2	;volatile
  1357  0246                     i1l1352:
  1358                           
  1359                           ;interrupt.c: 121:        measureType = 1;
  1360  0246  01B0               	clrf	_measureType
  1361  0247  0AB0               	incf	_measureType,f
  1362  0248                     i1l1354:
  1363                           
  1364                           ;interrupt.c: 122:        ADIF = 0;
  1365  0248  130C               	bcf	12,6	;volatile
  1366  0249                     i1l1356:
  1367                           
  1368                           ;interrupt.c: 125:        _delay((unsigned long)((50)*(4000000/4000000.0)));
  1369  0249  3010               	movlw	16
  1370  024A  00A0               	movwf	??_MuxVoltage
  1371  024B                     u87_27:
  1372  024B  0BA0               	decfsz	??_MuxVoltage,f
  1373  024C  2A4B               	goto	u87_27
  1374  024D  0000               	nop
  1375  024E                     i1l1358:
  1376                           
  1377                           ;interrupt.c: 126:        GO = 1;
  1378  024E  1283               	bcf	3,5	;RP0=0, select bank0
  1379  024F  149F               	bsf	31,1	;volatile
  1380  0250                     i1l91:
  1381  0250  0008               	return
  1382  0251                     __end_of_MuxVoltage:
  1383                           
  1384                           	psect	text7
  1385  022D                     __ptext7:	
  1386 ;; *************** function _MuxTemp *****************
  1387 ;; Defined at:
  1388 ;;		line 130 in file "interrupt.c"
  1389 ;; Parameters:    Size  Location     Type
  1390 ;;		None
  1391 ;; Auto vars:     Size  Location     Type
  1392 ;;		None
  1393 ;; Return value:  Size  Location     Type
  1394 ;;                  1    wreg      void 
  1395 ;; Registers used:
  1396 ;;		wreg, status,2
  1397 ;; Tracked objects:
  1398 ;;		On entry : 0/0
  1399 ;;		On exit  : 0/0
  1400 ;;		Unchanged: 0/0
  1401 ;; Data sizes:     COMMON   BANK0
  1402 ;;      Params:         0       0
  1403 ;;      Locals:         0       0
  1404 ;;      Temps:          0       1
  1405 ;;      Totals:         0       1
  1406 ;;Total ram usage:        1 bytes
  1407 ;; Hardware stack levels used: 1
  1408 ;; This function calls:
  1409 ;;		Nothing
  1410 ;; This function is called by:
  1411 ;;		_ISR
  1412 ;; This function uses a non-reentrant model
  1413 ;;
  1414                           
  1415  022D                     _MuxTemp:	
  1416                           ;psect for function _MuxTemp
  1417                           
  1418  022D                     i1l1324:	
  1419                           ;incstack = 0
  1420                           ; Regs used in _MuxTemp: [wreg+status,2]
  1421                           
  1422                           
  1423                           ;interrupt.c: 131:        ADCON0 = 0;
  1424  022D  1283               	bcf	3,5	;RP0=0, select bank0
  1425  022E  019F               	clrf	31	;volatile
  1426  022F                     i1l1326:
  1427                           
  1428                           ;interrupt.c: 132:        ADON = 1;
  1429  022F  141F               	bsf	31,0	;volatile
  1430  0230                     i1l1328:
  1431                           
  1432                           ;interrupt.c: 133:        ADFM = 1;
  1433  0230  179F               	bsf	31,7	;volatile
  1434  0231                     i1l1330:
  1435                           
  1436                           ;interrupt.c: 134:        CHS1 = 0;
  1437  0231  119F               	bcf	31,3	;volatile
  1438  0232                     i1l1332:
  1439                           
  1440                           ;interrupt.c: 135:        CHS0 = 0;
  1441  0232  111F               	bcf	31,2	;volatile
  1442  0233                     i1l1334:
  1443                           
  1444                           ;interrupt.c: 136:        measureType = 2;
  1445  0233  3002               	movlw	2
  1446  0234  00A0               	movwf	??_MuxTemp
  1447  0235  0820               	movf	??_MuxTemp,w
  1448  0236  00B0               	movwf	_measureType
  1449  0237                     i1l1336:
  1450                           
  1451                           ;interrupt.c: 137:        ADIF = 0;
  1452  0237  130C               	bcf	12,6	;volatile
  1453  0238                     i1l1338:
  1454                           
  1455                           ;interrupt.c: 140:        _delay((unsigned long)((50)*(4000000/4000000.0)));
  1456  0238  3010               	movlw	16
  1457  0239  00A0               	movwf	??_MuxTemp
  1458  023A                     u88_27:
  1459  023A  0BA0               	decfsz	??_MuxTemp,f
  1460  023B  2A3A               	goto	u88_27
  1461  023C  0000               	nop
  1462  023D                     i1l1340:
  1463                           
  1464                           ;interrupt.c: 141:        GO = 1;
  1465  023D  1283               	bcf	3,5	;RP0=0, select bank0
  1466  023E  149F               	bsf	31,1	;volatile
  1467  023F                     i1l94:
  1468  023F  0008               	return
  1469  0240                     __end_of_MuxTemp:
  1470                           
  1471                           	psect	text8
  1472  01CB                     __ptext8:	
  1473 ;; *************** function _DataProcessing *****************
  1474 ;; Defined at:
  1475 ;;		line 145 in file "interrupt.c"
  1476 ;; Parameters:    Size  Location     Type
  1477 ;;		None
  1478 ;; Auto vars:     Size  Location     Type
  1479 ;;		None
  1480 ;; Return value:  Size  Location     Type
  1481 ;;                  1    wreg      void 
  1482 ;; Registers used:
  1483 ;;		wreg, fsr0l, fsr0h, status,2, status,0, pclath, cstack
  1484 ;; Tracked objects:
  1485 ;;		On entry : 0/0
  1486 ;;		On exit  : 0/0
  1487 ;;		Unchanged: 0/0
  1488 ;; Data sizes:     COMMON   BANK0
  1489 ;;      Params:         0       0
  1490 ;;      Locals:         0       0
  1491 ;;      Temps:          0       2
  1492 ;;      Totals:         0       2
  1493 ;;Total ram usage:        2 bytes
  1494 ;; Hardware stack levels used: 1
  1495 ;; Hardware stack levels required when called: 2
  1496 ;; This function calls:
  1497 ;;		_ThreeShort
  1498 ;;		_TwoShortOneLong
  1499 ;;		_TwoShortTwoLong
  1500 ;; This function is called by:
  1501 ;;		_ISR
  1502 ;; This function uses a non-reentrant model
  1503 ;;
  1504                           
  1505  01CB                     _DataProcessing:	
  1506                           ;psect for function _DataProcessing
  1507                           
  1508  01CB                     i1l1302:	
  1509                           ;incstack = 0
  1510                           ; Regs used in _DataProcessing: [wreg-fsr0h+status,2+status,0+pclath+cstack]
  1511                           
  1512                           
  1513                           ;interrupt.c: 147:       switch(errorType){
  1514  01CB  29D7               	goto	i1l1318
  1515  01CC                     i1l1304:
  1516                           
  1517                           ;interrupt.c: 153:     TwoShortOneLong();
  1518  01CC  21EF               	fcall	_TwoShortOneLong
  1519  01CD                     i1l1306:
  1520                           
  1521                           ;interrupt.c: 154:     errorType = 1;
  1522  01CD  3001               	movlw	1
  1523  01CE  1283               	bcf	3,5	;RP0=0, select bank0
  1524  01CF  00A1               	movwf	??_DataProcessing
  1525  01D0  0821               	movf	??_DataProcessing,w
  1526  01D1  00AF               	movwf	_errorType	;volatile
  1527                           
  1528                           ;interrupt.c: 155:      break;
  1529  01D2  29EE               	goto	i1l104
  1530  01D3                     i1l1308:
  1531                           
  1532                           ;interrupt.c: 158:            TwoShortTwoLong();
  1533  01D3  21A4               	fcall	_TwoShortTwoLong
  1534  01D4  29CD               	goto	i1l1306
  1535  01D5                     i1l1312:
  1536                           
  1537                           ;interrupt.c: 163:            ThreeShort();
  1538  01D5  220E               	fcall	_ThreeShort
  1539  01D6  29CD               	goto	i1l1306
  1540  01D7                     i1l1318:
  1541  01D7  1283               	bcf	3,5	;RP0=0, select bank0
  1542  01D8  082F               	movf	_errorType,w	;volatile
  1543  01D9  00A1               	movwf	??_DataProcessing
  1544  01DA  01A2               	clrf	??_DataProcessing+1
  1545                           
  1546                           ; Switch on 2 bytes has been partitioned into a top level switch of size 1, and 1 sub-sw
      +                          itches
  1547                           ; Switch size 1, requested type "simple"
  1548                           ; Number of cases is 1, Range of values is 0 to 0
  1549                           ; switch strategies available:
  1550                           ; Name         Instructions Cycles
  1551                           ; simple_byte            4     3 (average)
  1552                           ; direct_byte            7     6 (fixed)
  1553                           ; jumptable            260     6 (fixed)
  1554                           ;	Chosen strategy is simple_byte
  1555  01DB  0822               	movf	??_DataProcessing+1,w
  1556  01DC  3A00               	xorlw	0	; case 0
  1557  01DD  1903               	skipnz
  1558  01DE  29E0               	goto	i1l1568
  1559  01DF  29EE               	goto	i1l104
  1560  01E0                     i1l1568:
  1561                           
  1562                           ; Switch size 1, requested type "simple"
  1563                           ; Number of cases is 4, Range of values is 1 to 5
  1564                           ; switch strategies available:
  1565                           ; Name         Instructions Cycles
  1566                           ; simple_byte           13     7 (average)
  1567                           ; direct_byte           14     9 (fixed)
  1568                           ; jumptable            263     9 (fixed)
  1569                           ;	Chosen strategy is simple_byte
  1570  01E0  0821               	movf	??_DataProcessing,w
  1571  01E1  3A01               	xorlw	1	; case 1
  1572  01E2  1903               	skipnz
  1573  01E3  29EE               	goto	i1l104
  1574  01E4  3A03               	xorlw	3	; case 2
  1575  01E5  1903               	skipnz
  1576  01E6  29CC               	goto	i1l1304
  1577  01E7  3A01               	xorlw	1	; case 3
  1578  01E8  1903               	skipnz
  1579  01E9  29D3               	goto	i1l1308
  1580  01EA  3A06               	xorlw	6	; case 5
  1581  01EB  1903               	skipnz
  1582  01EC  29D5               	goto	i1l1312
  1583  01ED  29EE               	goto	i1l104
  1584  01EE                     i1l104:
  1585  01EE  0008               	return
  1586  01EF                     __end_of_DataProcessing:
  1587                           
  1588                           	psect	text9
  1589  01A4                     __ptext9:	
  1590 ;; *************** function _TwoShortTwoLong *****************
  1591 ;; Defined at:
  1592 ;;		line 52 in file "sounds.c"
  1593 ;; Parameters:    Size  Location     Type
  1594 ;;		None
  1595 ;; Auto vars:     Size  Location     Type
  1596 ;;		None
  1597 ;; Return value:  Size  Location     Type
  1598 ;;                  1    wreg      void 
  1599 ;; Registers used:
  1600 ;;		wreg, status,2, status,0, pclath, cstack
  1601 ;; Tracked objects:
  1602 ;;		On entry : 0/0
  1603 ;;		On exit  : 0/0
  1604 ;;		Unchanged: 0/0
  1605 ;; Data sizes:     COMMON   BANK0
  1606 ;;      Params:         0       0
  1607 ;;      Locals:         0       0
  1608 ;;      Temps:          0       0
  1609 ;;      Totals:         0       0
  1610 ;;Total ram usage:        0 bytes
  1611 ;; Hardware stack levels used: 1
  1612 ;; Hardware stack levels required when called: 1
  1613 ;; This function calls:
  1614 ;;		_ShortSound
  1615 ;;		_TimeOut
  1616 ;;		i1_LongSound
  1617 ;; This function is called by:
  1618 ;;		_DataProcessing
  1619 ;; This function uses a non-reentrant model
  1620 ;;
  1621                           
  1622  01A4                     _TwoShortTwoLong:	
  1623                           ;psect for function _TwoShortTwoLong
  1624                           
  1625  01A4                     i1l1250:	
  1626                           ;incstack = 0
  1627                           ; Regs used in _TwoShortTwoLong: [wreg+status,2+status,0+pclath+cstack]
  1628                           
  1629                           
  1630                           ;sounds.c: 54:        if (soundModeSwitch == 0){
  1631  01A4  1283               	bcf	3,5	;RP0=0, select bank0
  1632  01A5  082D               	movf	_soundModeSwitch,w	;volatile
  1633  01A6  1D03               	btfss	3,2
  1634  01A7  29A9               	goto	u57_21
  1635  01A8  29AA               	goto	u57_20
  1636  01A9                     u57_21:
  1637  01A9  29AB               	goto	i1l1254
  1638  01AA                     u57_20:
  1639  01AA                     i1l1252:
  1640                           
  1641                           ;sounds.c: 55:           ShortSound();
  1642  01AA  214A               	fcall	_ShortSound
  1643  01AB                     i1l1254:
  1644                           
  1645                           ;sounds.c: 57:        if (soundModeSwitch == 1){
  1646  01AB  1283               	bcf	3,5	;RP0=0, select bank0
  1647  01AC  032D               	decf	_soundModeSwitch,w	;volatile
  1648  01AD  1D03               	btfss	3,2
  1649  01AE  29B0               	goto	u58_21
  1650  01AF  29B1               	goto	u58_20
  1651  01B0                     u58_21:
  1652  01B0  29B2               	goto	i1l1258
  1653  01B1                     u58_20:
  1654  01B1                     i1l1256:
  1655                           
  1656                           ;sounds.c: 58:           ShortSound();
  1657  01B1  214A               	fcall	_ShortSound
  1658  01B2                     i1l1258:
  1659                           
  1660                           ;sounds.c: 60:        if (soundModeSwitch == 2){
  1661  01B2  3002               	movlw	2
  1662  01B3  1283               	bcf	3,5	;RP0=0, select bank0
  1663  01B4  062D               	xorwf	_soundModeSwitch,w	;volatile
  1664  01B5  1D03               	btfss	3,2
  1665  01B6  29B8               	goto	u59_21
  1666  01B7  29B9               	goto	u59_20
  1667  01B8                     u59_21:
  1668  01B8  29BA               	goto	i1l1262
  1669  01B9                     u59_20:
  1670  01B9                     i1l1260:
  1671                           
  1672                           ;sounds.c: 61:           LongSound();
  1673  01B9  211A               	fcall	i1_LongSound
  1674  01BA                     i1l1262:
  1675                           
  1676                           ;sounds.c: 63:        if (soundModeSwitch == 3){
  1677  01BA  3003               	movlw	3
  1678  01BB  1283               	bcf	3,5	;RP0=0, select bank0
  1679  01BC  062D               	xorwf	_soundModeSwitch,w	;volatile
  1680  01BD  1D03               	btfss	3,2
  1681  01BE  29C0               	goto	u60_21
  1682  01BF  29C1               	goto	u60_20
  1683  01C0                     u60_21:
  1684  01C0  29C2               	goto	i1l1266
  1685  01C1                     u60_20:
  1686  01C1                     i1l1264:
  1687                           
  1688                           ;sounds.c: 64:           LongSound();
  1689  01C1  211A               	fcall	i1_LongSound
  1690  01C2                     i1l1266:
  1691                           
  1692                           ;sounds.c: 66:        if (soundModeSwitch > 3) {
  1693  01C2  3004               	movlw	4
  1694  01C3  1283               	bcf	3,5	;RP0=0, select bank0
  1695  01C4  022D               	subwf	_soundModeSwitch,w	;volatile
  1696  01C5  1C03               	skipc
  1697  01C6  29C8               	goto	u61_21
  1698  01C7  29C9               	goto	u61_20
  1699  01C8                     u61_21:
  1700  01C8  29CA               	goto	i1l160
  1701  01C9                     u61_20:
  1702  01C9                     i1l1268:
  1703                           
  1704                           ;sounds.c: 67:          TimeOut();
  1705  01C9  2251               	fcall	_TimeOut
  1706  01CA                     i1l160:
  1707  01CA  0008               	return
  1708  01CB                     __end_of_TwoShortTwoLong:
  1709                           
  1710                           	psect	text10
  1711  01EF                     __ptext10:	
  1712 ;; *************** function _TwoShortOneLong *****************
  1713 ;; Defined at:
  1714 ;;		line 35 in file "sounds.c"
  1715 ;; Parameters:    Size  Location     Type
  1716 ;;		None
  1717 ;; Auto vars:     Size  Location     Type
  1718 ;;		None
  1719 ;; Return value:  Size  Location     Type
  1720 ;;                  1    wreg      void 
  1721 ;; Registers used:
  1722 ;;		wreg, status,2, status,0, pclath, cstack
  1723 ;; Tracked objects:
  1724 ;;		On entry : 0/0
  1725 ;;		On exit  : 0/0
  1726 ;;		Unchanged: 0/0
  1727 ;; Data sizes:     COMMON   BANK0
  1728 ;;      Params:         0       0
  1729 ;;      Locals:         0       0
  1730 ;;      Temps:          0       0
  1731 ;;      Totals:         0       0
  1732 ;;Total ram usage:        0 bytes
  1733 ;; Hardware stack levels used: 1
  1734 ;; Hardware stack levels required when called: 1
  1735 ;; This function calls:
  1736 ;;		_ShortSound
  1737 ;;		_TimeOut
  1738 ;;		i1_LongSound
  1739 ;; This function is called by:
  1740 ;;		_DataProcessing
  1741 ;; This function uses a non-reentrant model
  1742 ;;
  1743                           
  1744  01EF                     _TwoShortOneLong:	
  1745                           ;psect for function _TwoShortOneLong
  1746                           
  1747  01EF                     i1l1234:	
  1748                           ;incstack = 0
  1749                           ; Regs used in _TwoShortOneLong: [wreg+status,2+status,0+pclath+cstack]
  1750                           
  1751                           
  1752                           ;sounds.c: 37:        if (soundModeSwitch == 0){
  1753  01EF  1283               	bcf	3,5	;RP0=0, select bank0
  1754  01F0  082D               	movf	_soundModeSwitch,w	;volatile
  1755  01F1  1D03               	btfss	3,2
  1756  01F2  29F4               	goto	u53_21
  1757  01F3  29F5               	goto	u53_20
  1758  01F4                     u53_21:
  1759  01F4  29F6               	goto	i1l1238
  1760  01F5                     u53_20:
  1761  01F5                     i1l1236:
  1762                           
  1763                           ;sounds.c: 38:           ShortSound();
  1764  01F5  214A               	fcall	_ShortSound
  1765  01F6                     i1l1238:
  1766                           
  1767                           ;sounds.c: 40:        if (soundModeSwitch == 1){
  1768  01F6  1283               	bcf	3,5	;RP0=0, select bank0
  1769  01F7  032D               	decf	_soundModeSwitch,w	;volatile
  1770  01F8  1D03               	btfss	3,2
  1771  01F9  29FB               	goto	u54_21
  1772  01FA  29FC               	goto	u54_20
  1773  01FB                     u54_21:
  1774  01FB  29FD               	goto	i1l1242
  1775  01FC                     u54_20:
  1776  01FC                     i1l1240:
  1777                           
  1778                           ;sounds.c: 41:           ShortSound();
  1779  01FC  214A               	fcall	_ShortSound
  1780  01FD                     i1l1242:
  1781                           
  1782                           ;sounds.c: 43:        if (soundModeSwitch == 2){
  1783  01FD  3002               	movlw	2
  1784  01FE  1283               	bcf	3,5	;RP0=0, select bank0
  1785  01FF  062D               	xorwf	_soundModeSwitch,w	;volatile
  1786  0200  1D03               	btfss	3,2
  1787  0201  2A03               	goto	u55_21
  1788  0202  2A04               	goto	u55_20
  1789  0203                     u55_21:
  1790  0203  2A05               	goto	i1l1246
  1791  0204                     u55_20:
  1792  0204                     i1l1244:
  1793                           
  1794                           ;sounds.c: 44:           LongSound();
  1795  0204  211A               	fcall	i1_LongSound
  1796  0205                     i1l1246:
  1797                           
  1798                           ;sounds.c: 46:        if (soundModeSwitch > 2) {
  1799  0205  3003               	movlw	3
  1800  0206  1283               	bcf	3,5	;RP0=0, select bank0
  1801  0207  022D               	subwf	_soundModeSwitch,w	;volatile
  1802  0208  1C03               	skipc
  1803  0209  2A0B               	goto	u56_21
  1804  020A  2A0C               	goto	u56_20
  1805  020B                     u56_21:
  1806  020B  2A0D               	goto	i1l152
  1807  020C                     u56_20:
  1808  020C                     i1l1248:
  1809                           
  1810                           ;sounds.c: 47:        TimeOut();
  1811  020C  2251               	fcall	_TimeOut
  1812  020D                     i1l152:
  1813  020D  0008               	return
  1814  020E                     __end_of_TwoShortOneLong:
  1815                           
  1816                           	psect	text11
  1817  011A                     __ptext11:	
  1818 ;; *************** function i1_LongSound *****************
  1819 ;; Defined at:
  1820 ;;		line 17 in file "sounds.c"
  1821 ;; Parameters:    Size  Location     Type
  1822 ;;		None
  1823 ;; Auto vars:     Size  Location     Type
  1824 ;;		None
  1825 ;; Return value:  Size  Location     Type
  1826 ;;                  1    wreg      void 
  1827 ;; Registers used:
  1828 ;;		wreg, status,2, status,0
  1829 ;; Tracked objects:
  1830 ;;		On entry : 0/0
  1831 ;;		On exit  : 0/0
  1832 ;;		Unchanged: 0/0
  1833 ;; Data sizes:     COMMON   BANK0
  1834 ;;      Params:         0       0
  1835 ;;      Locals:         0       0
  1836 ;;      Temps:          0       1
  1837 ;;      Totals:         0       1
  1838 ;;Total ram usage:        1 bytes
  1839 ;; Hardware stack levels used: 1
  1840 ;; This function calls:
  1841 ;;		Nothing
  1842 ;; This function is called by:
  1843 ;;		_TwoShortOneLong
  1844 ;;		_TwoShortTwoLong
  1845 ;; This function uses a non-reentrant model
  1846 ;;
  1847                           
  1848  011A                     i1_LongSound:	
  1849                           ;psect for function i1_LongSound
  1850                           
  1851  011A                     i1l1218:	
  1852                           ;incstack = 0
  1853                           ; Regs used in i1_LongSound: [wreg+status,2+status,0]
  1854                           
  1855                           
  1856                           ;sounds.c: 18:    if(cnt1 <= 200) GP2 = 1;
  1857  011A  3000               	movlw	0
  1858  011B  1283               	bcf	3,5	;RP0=0, select bank0
  1859  011C  022C               	subwf	_cnt1+1,w
  1860  011D  30C9               	movlw	201
  1861  011E  1903               	skipnz
  1862  011F  022B               	subwf	_cnt1,w
  1863  0120  1803               	skipnc
  1864  0121  2923               	goto	u49_21
  1865  0122  2924               	goto	u49_20
  1866  0123                     u49_21:
  1867  0123  2926               	goto	i1l1222
  1868  0124                     u49_20:
  1869  0124                     i1l1220:
  1870  0124  1505               	bsf	5,2	;volatile
  1871  0125  2949               	goto	i1l140
  1872  0126                     i1l1222:
  1873  0126  3000               	movlw	0
  1874  0127  022C               	subwf	_cnt1+1,w
  1875  0128  30C9               	movlw	201
  1876  0129  1903               	skipnz
  1877  012A  022B               	subwf	_cnt1,w
  1878  012B  1C03               	skipc
  1879  012C  292E               	goto	u50_21
  1880  012D  292F               	goto	u50_20
  1881  012E                     u50_21:
  1882  012E  293A               	goto	i1l1228
  1883  012F                     u50_20:
  1884  012F                     i1l1224:
  1885  012F  3001               	movlw	1
  1886  0130  022C               	subwf	_cnt1+1,w
  1887  0131  305F               	movlw	95
  1888  0132  1903               	skipnz
  1889  0133  022B               	subwf	_cnt1,w
  1890  0134  1803               	skipnc
  1891  0135  2937               	goto	u51_21
  1892  0136  2938               	goto	u51_20
  1893  0137                     u51_21:
  1894  0137  293A               	goto	i1l1228
  1895  0138                     u51_20:
  1896  0138                     i1l1226:
  1897  0138  1105               	bcf	5,2	;volatile
  1898  0139  2949               	goto	i1l140
  1899  013A                     i1l1228:
  1900  013A  3001               	movlw	1
  1901  013B  022C               	subwf	_cnt1+1,w
  1902  013C  305F               	movlw	95
  1903  013D  1903               	skipnz
  1904  013E  022B               	subwf	_cnt1,w
  1905  013F  1C03               	skipc
  1906  0140  2942               	goto	u52_21
  1907  0141  2943               	goto	u52_20
  1908  0142                     u52_21:
  1909  0142  2949               	goto	i1l140
  1910  0143                     u52_20:
  1911  0143                     i1l1230:
  1912                           
  1913                           ;sounds.c: 21:       cnt1 = 0;
  1914  0143  01AB               	clrf	_cnt1
  1915  0144  01AC               	clrf	_cnt1+1
  1916  0145                     i1l1232:
  1917                           
  1918                           ;sounds.c: 22:       soundModeSwitch++;
  1919  0145  3001               	movlw	1
  1920  0146  00A0               	movwf	??i1_LongSound
  1921  0147  0820               	movf	??i1_LongSound,w
  1922  0148  07AD               	addwf	_soundModeSwitch,f	;volatile
  1923  0149                     i1l140:
  1924  0149  0008               	return
  1925  014A                     __end_ofi1_LongSound:
  1926                           
  1927                           	psect	text12
  1928  020E                     __ptext12:	
  1929 ;; *************** function _ThreeShort *****************
  1930 ;; Defined at:
  1931 ;;		line 71 in file "sounds.c"
  1932 ;; Parameters:    Size  Location     Type
  1933 ;;		None
  1934 ;; Auto vars:     Size  Location     Type
  1935 ;;		None
  1936 ;; Return value:  Size  Location     Type
  1937 ;;                  1    wreg      void 
  1938 ;; Registers used:
  1939 ;;		wreg, status,2, status,0, pclath, cstack
  1940 ;; Tracked objects:
  1941 ;;		On entry : 0/0
  1942 ;;		On exit  : 0/0
  1943 ;;		Unchanged: 0/0
  1944 ;; Data sizes:     COMMON   BANK0
  1945 ;;      Params:         0       0
  1946 ;;      Locals:         0       0
  1947 ;;      Temps:          0       0
  1948 ;;      Totals:         0       0
  1949 ;;Total ram usage:        0 bytes
  1950 ;; Hardware stack levels used: 1
  1951 ;; Hardware stack levels required when called: 1
  1952 ;; This function calls:
  1953 ;;		_ShortSound
  1954 ;;		_TimeOut
  1955 ;; This function is called by:
  1956 ;;		_DataProcessing
  1957 ;; This function uses a non-reentrant model
  1958 ;;
  1959                           
  1960  020E                     _ThreeShort:	
  1961                           ;psect for function _ThreeShort
  1962                           
  1963  020E                     i1l1270:	
  1964                           ;incstack = 0
  1965                           ; Regs used in _ThreeShort: [wreg+status,2+status,0+pclath+cstack]
  1966                           
  1967                           
  1968                           ;sounds.c: 73:        if (soundModeSwitch == 0){
  1969  020E  1283               	bcf	3,5	;RP0=0, select bank0
  1970  020F  082D               	movf	_soundModeSwitch,w	;volatile
  1971  0210  1D03               	btfss	3,2
  1972  0211  2A13               	goto	u62_21
  1973  0212  2A14               	goto	u62_20
  1974  0213                     u62_21:
  1975  0213  2A15               	goto	i1l1274
  1976  0214                     u62_20:
  1977  0214                     i1l1272:
  1978                           
  1979                           ;sounds.c: 74:           ShortSound();
  1980  0214  214A               	fcall	_ShortSound
  1981  0215                     i1l1274:
  1982                           
  1983                           ;sounds.c: 76:        if (soundModeSwitch == 1){
  1984  0215  1283               	bcf	3,5	;RP0=0, select bank0
  1985  0216  032D               	decf	_soundModeSwitch,w	;volatile
  1986  0217  1D03               	btfss	3,2
  1987  0218  2A1A               	goto	u63_21
  1988  0219  2A1B               	goto	u63_20
  1989  021A                     u63_21:
  1990  021A  2A1C               	goto	i1l1278
  1991  021B                     u63_20:
  1992  021B                     i1l1276:
  1993                           
  1994                           ;sounds.c: 77:           ShortSound();
  1995  021B  214A               	fcall	_ShortSound
  1996  021C                     i1l1278:
  1997                           
  1998                           ;sounds.c: 79:        if (soundModeSwitch == 2){
  1999  021C  3002               	movlw	2
  2000  021D  1283               	bcf	3,5	;RP0=0, select bank0
  2001  021E  062D               	xorwf	_soundModeSwitch,w	;volatile
  2002  021F  1D03               	btfss	3,2
  2003  0220  2A22               	goto	u64_21
  2004  0221  2A23               	goto	u64_20
  2005  0222                     u64_21:
  2006  0222  2A24               	goto	i1l1282
  2007  0223                     u64_20:
  2008  0223                     i1l1280:
  2009                           
  2010                           ;sounds.c: 80:           ShortSound();
  2011  0223  214A               	fcall	_ShortSound
  2012  0224                     i1l1282:
  2013                           
  2014                           ;sounds.c: 82:        if (soundModeSwitch > 2) {
  2015  0224  3003               	movlw	3
  2016  0225  1283               	bcf	3,5	;RP0=0, select bank0
  2017  0226  022D               	subwf	_soundModeSwitch,w	;volatile
  2018  0227  1C03               	skipc
  2019  0228  2A2A               	goto	u65_21
  2020  0229  2A2B               	goto	u65_20
  2021  022A                     u65_21:
  2022  022A  2A2C               	goto	i1l167
  2023  022B                     u65_20:
  2024  022B                     i1l1284:
  2025                           
  2026                           ;sounds.c: 83:          TimeOut();
  2027  022B  2251               	fcall	_TimeOut
  2028  022C                     i1l167:
  2029  022C  0008               	return
  2030  022D                     __end_of_ThreeShort:
  2031                           
  2032                           	psect	text13
  2033  0251                     __ptext13:	
  2034 ;; *************** function _TimeOut *****************
  2035 ;; Defined at:
  2036 ;;		line 26 in file "sounds.c"
  2037 ;; Parameters:    Size  Location     Type
  2038 ;;		None
  2039 ;; Auto vars:     Size  Location     Type
  2040 ;;		None
  2041 ;; Return value:  Size  Location     Type
  2042 ;;                  1    wreg      void 
  2043 ;; Registers used:
  2044 ;;		wreg, status,2
  2045 ;; Tracked objects:
  2046 ;;		On entry : 0/0
  2047 ;;		On exit  : 0/0
  2048 ;;		Unchanged: 0/0
  2049 ;; Data sizes:     COMMON   BANK0
  2050 ;;      Params:         0       0
  2051 ;;      Locals:         0       0
  2052 ;;      Temps:          0       0
  2053 ;;      Totals:         0       0
  2054 ;;Total ram usage:        0 bytes
  2055 ;; Hardware stack levels used: 1
  2056 ;; This function calls:
  2057 ;;		Nothing
  2058 ;; This function is called by:
  2059 ;;		_TwoShortOneLong
  2060 ;;		_TwoShortTwoLong
  2061 ;;		_ThreeShort
  2062 ;; This function uses a non-reentrant model
  2063 ;;
  2064                           
  2065  0251                     _TimeOut:	
  2066                           ;psect for function _TimeOut
  2067                           
  2068  0251                     i1l1212:	
  2069                           ;incstack = 0
  2070                           ; Regs used in _TimeOut: [wreg+status,2]
  2071                           
  2072                           
  2073                           ;sounds.c: 27:    if (cnt1 <= 1000) GP2 = 0;
  2074  0251  3003               	movlw	3
  2075  0252  1283               	bcf	3,5	;RP0=0, select bank0
  2076  0253  022C               	subwf	_cnt1+1,w
  2077  0254  30E9               	movlw	233
  2078  0255  1903               	skipnz
  2079  0256  022B               	subwf	_cnt1,w
  2080  0257  1803               	skipnc
  2081  0258  2A5A               	goto	u48_21
  2082  0259  2A5B               	goto	u48_20
  2083  025A                     u48_21:
  2084  025A  2A5D               	goto	i1l1216
  2085  025B                     u48_20:
  2086  025B                     i1l1214:
  2087  025B  1105               	bcf	5,2	;volatile
  2088  025C  2A60               	goto	i1l145
  2089  025D                     i1l1216:
  2090                           
  2091                           ;sounds.c: 29:     cnt1 = 0;
  2092  025D  01AB               	clrf	_cnt1
  2093  025E  01AC               	clrf	_cnt1+1
  2094                           
  2095                           ;sounds.c: 30:     soundModeSwitch = 0;
  2096  025F  01AD               	clrf	_soundModeSwitch	;volatile
  2097  0260                     i1l145:
  2098  0260  0008               	return
  2099  0261                     __end_of_TimeOut:
  2100                           
  2101                           	psect	text14
  2102  014A                     __ptext14:	
  2103 ;; *************** function _ShortSound *****************
  2104 ;; Defined at:
  2105 ;;		line 8 in file "sounds.c"
  2106 ;; Parameters:    Size  Location     Type
  2107 ;;		None
  2108 ;; Auto vars:     Size  Location     Type
  2109 ;;		None
  2110 ;; Return value:  Size  Location     Type
  2111 ;;                  1    wreg      void 
  2112 ;; Registers used:
  2113 ;;		wreg, status,2, status,0
  2114 ;; Tracked objects:
  2115 ;;		On entry : 0/0
  2116 ;;		On exit  : 0/0
  2117 ;;		Unchanged: 0/0
  2118 ;; Data sizes:     COMMON   BANK0
  2119 ;;      Params:         0       0
  2120 ;;      Locals:         0       0
  2121 ;;      Temps:          0       1
  2122 ;;      Totals:         0       1
  2123 ;;Total ram usage:        1 bytes
  2124 ;; Hardware stack levels used: 1
  2125 ;; This function calls:
  2126 ;;		Nothing
  2127 ;; This function is called by:
  2128 ;;		_TwoShortOneLong
  2129 ;;		_TwoShortTwoLong
  2130 ;;		_ThreeShort
  2131 ;; This function uses a non-reentrant model
  2132 ;;
  2133                           
  2134  014A                     _ShortSound:	
  2135                           ;psect for function _ShortSound
  2136                           
  2137  014A                     i1l1196:	
  2138                           ;incstack = 0
  2139                           ; Regs used in _ShortSound: [wreg+status,2+status,0]
  2140                           
  2141                           
  2142                           ;sounds.c: 9:    if(cnt1 <= 120) GP2 = 1;
  2143  014A  3000               	movlw	0
  2144  014B  1283               	bcf	3,5	;RP0=0, select bank0
  2145  014C  022C               	subwf	_cnt1+1,w
  2146  014D  3079               	movlw	121
  2147  014E  1903               	skipnz
  2148  014F  022B               	subwf	_cnt1,w
  2149  0150  1803               	skipnc
  2150  0151  2953               	goto	u44_21
  2151  0152  2954               	goto	u44_20
  2152  0153                     u44_21:
  2153  0153  2956               	goto	i1l1200
  2154  0154                     u44_20:
  2155  0154                     i1l1198:
  2156  0154  1505               	bsf	5,2	;volatile
  2157  0155  2979               	goto	i1l132
  2158  0156                     i1l1200:
  2159  0156  3000               	movlw	0
  2160  0157  022C               	subwf	_cnt1+1,w
  2161  0158  3079               	movlw	121
  2162  0159  1903               	skipnz
  2163  015A  022B               	subwf	_cnt1,w
  2164  015B  1C03               	skipc
  2165  015C  295E               	goto	u45_21
  2166  015D  295F               	goto	u45_20
  2167  015E                     u45_21:
  2168  015E  296A               	goto	i1l1206
  2169  015F                     u45_20:
  2170  015F                     i1l1202:
  2171  015F  3000               	movlw	0
  2172  0160  022C               	subwf	_cnt1+1,w
  2173  0161  30C9               	movlw	201
  2174  0162  1903               	skipnz
  2175  0163  022B               	subwf	_cnt1,w
  2176  0164  1803               	skipnc
  2177  0165  2967               	goto	u46_21
  2178  0166  2968               	goto	u46_20
  2179  0167                     u46_21:
  2180  0167  296A               	goto	i1l1206
  2181  0168                     u46_20:
  2182  0168                     i1l1204:
  2183  0168  1105               	bcf	5,2	;volatile
  2184  0169  2979               	goto	i1l132
  2185  016A                     i1l1206:
  2186  016A  3000               	movlw	0
  2187  016B  022C               	subwf	_cnt1+1,w
  2188  016C  30C9               	movlw	201
  2189  016D  1903               	skipnz
  2190  016E  022B               	subwf	_cnt1,w
  2191  016F  1C03               	skipc
  2192  0170  2972               	goto	u47_21
  2193  0171  2973               	goto	u47_20
  2194  0172                     u47_21:
  2195  0172  2979               	goto	i1l132
  2196  0173                     u47_20:
  2197  0173                     i1l1208:
  2198                           
  2199                           ;sounds.c: 12:       cnt1 = 0;
  2200  0173  01AB               	clrf	_cnt1
  2201  0174  01AC               	clrf	_cnt1+1
  2202  0175                     i1l1210:
  2203                           
  2204                           ;sounds.c: 13:       soundModeSwitch++;
  2205  0175  3001               	movlw	1
  2206  0176  00A0               	movwf	??_ShortSound
  2207  0177  0820               	movf	??_ShortSound,w
  2208  0178  07AD               	addwf	_soundModeSwitch,f	;volatile
  2209  0179                     i1l132:
  2210  0179  0008               	return
  2211  017A                     __end_of_ShortSound:
  2212  005E                     btemp	set	94	;btemp
  2213  005E                     wtemp0	set	94
  2214                           
  2215                           	psect	config
  2216                           
  2217                           ;Config register CONFIG @ 0x2007
  2218                           ;	Oscillator Selection bits
  2219                           ;	FOSC = INTRCIO, INTOSC oscillator: I/O function on GP4/OSC2/CLKOUT pin, I/O function o
      +                          n GP5/OSC1/CLKIN
  2220                           ;	Watchdog Timer Enable bit
  2221                           ;	WDTE = OFF, WDT disabled
  2222                           ;	Power-Up Timer Enable bit
  2223                           ;	PWRTE = OFF, PWRT disabled
  2224                           ;	GP3/MCLR pin function select
  2225                           ;	MCLRE = ON, GP3/MCLR pin function is MCLR
  2226                           ;	Brown-out Detect Enable bit
  2227                           ;	BOREN = ON, BOD enabled
  2228                           ;	Code Protection bit
  2229                           ;	CP = OFF, Program Memory code protection is disabled
  2230                           ;	Data Code Protection bit
  2231                           ;	CPD = OFF, Data memory code protection is disabled
  2232  2007                     	org	8199
  2233  2007  31F4               	dw	12788

Data Sizes:
    Strings     0
    Constant    0
    Data        2
    BSS         6
    Persistent  0
    Stack       0

Auto Spaces:
    Space          Size  Autos    Used
    COMMON            0      0       0
    BANK0            62      9      17

Pointer List with Targets:

    None.

Critical Paths under _main in COMMON

    None.

Critical Paths under _ISR in COMMON

    None.

Critical Paths under _main in BANK0

    _Init_uC->_LongSound

Critical Paths under _ISR in BANK0

    _ISR->_DataProcessing
    _TwoShortTwoLong->_ShortSound
    _TwoShortTwoLong->i1_LongSound
    _TwoShortOneLong->_ShortSound
    _TwoShortOneLong->i1_LongSound
    _ThreeShort->_ShortSound

Call Graph Tables:

 ---------------------------------------------------------------------------------
 (Depth) Function   	        Calls       Base Space   Used Autos Params    Refs
 ---------------------------------------------------------------------------------
 (0) _main                                                 0     0      0       0
                         _InitTimer0
                         _InitTimer1
                            _Init_uC
 ---------------------------------------------------------------------------------
 (1) _Init_uC                                              0     0      0       0
                          _LongSound
 ---------------------------------------------------------------------------------
 (2) _LongSound                                            1     1      0       0
                                              8 BANK0      1     1      0
 ---------------------------------------------------------------------------------
 (1) _InitTimer1                                           0     0      0       0
 ---------------------------------------------------------------------------------
 (1) _InitTimer0                                           0     0      0       0
 ---------------------------------------------------------------------------------
 Estimated maximum stack depth 2
 ---------------------------------------------------------------------------------
 (Depth) Function   	        Calls       Base Space   Used Autos Params    Refs
 ---------------------------------------------------------------------------------
 (3) _ISR                                                  5     5      0       0
                                              3 BANK0      5     5      0
                     _DataProcessing
                            _MuxTemp
                         _MuxVoltage
 ---------------------------------------------------------------------------------
 (4) _MuxVoltage                                           1     1      0       0
                                              0 BANK0      1     1      0
 ---------------------------------------------------------------------------------
 (4) _MuxTemp                                              1     1      0       0
                                              0 BANK0      1     1      0
 ---------------------------------------------------------------------------------
 (4) _DataProcessing                                       2     2      0       0
                                              1 BANK0      2     2      0
                         _ThreeShort
                    _TwoShortOneLong
                    _TwoShortTwoLong
 ---------------------------------------------------------------------------------
 (5) _TwoShortTwoLong                                      0     0      0       0
                         _ShortSound
                            _TimeOut
                        i1_LongSound
 ---------------------------------------------------------------------------------
 (5) _TwoShortOneLong                                      0     0      0       0
                         _ShortSound
                            _TimeOut
                        i1_LongSound
 ---------------------------------------------------------------------------------
 (6) i1_LongSound                                          1     1      0       0
                                              0 BANK0      1     1      0
 ---------------------------------------------------------------------------------
 (5) _ThreeShort                                           0     0      0       0
                         _ShortSound
                            _TimeOut
 ---------------------------------------------------------------------------------
 (6) _TimeOut                                              0     0      0       0
 ---------------------------------------------------------------------------------
 (6) _ShortSound                                           1     1      0       0
                                              0 BANK0      1     1      0
 ---------------------------------------------------------------------------------
 Estimated maximum stack depth 6
 ---------------------------------------------------------------------------------

 Call Graph Graphs:

 _main (ROOT)
   _InitTimer0
   _InitTimer1
   _Init_uC
     _LongSound

 _ISR (ROOT)
   _DataProcessing
     _ThreeShort
       _ShortSound
       _TimeOut
     _TwoShortOneLong
       _ShortSound
       _TimeOut
       i1_LongSound
     _TwoShortTwoLong
       _ShortSound
       _TimeOut
       i1_LongSound
   _MuxTemp
   _MuxVoltage

 Address spaces:
Name               Size   Autos  Total    Cost      Usage
SFR1                 0      0       0       2        0.0%
BITSFR1              0      0       0       2        0.0%
BANK0               3E      9      11       4       27.4%
BITBANK0            3E      0       0       3        0.0%
SFR0                 0      0       0       1        0.0%
BITSFR0              0      0       0       1        0.0%
COMMON               0      0       0       1        0.0%
BITCOMMON            0      0       0       0        0.0%
CODE                 0      0       0       0        0.0%
DATA                 0      0      11       6        0.0%
ABS                  0      0      11       5        0.0%
NULL                 0      0       0       0        0.0%
STACK                0      0       0       2        0.0%
EEDATA              80      0       0       0        0.0%


Microchip Technology PIC Macro Assembler V2.36 build 20220127204148 
Symbol Table                                                                                   Sun Mar 17 21:55:28 2024

                     _GO 00F9                      l115 0277                      l140 0119  
                    l116 0277                      l240 0273                      l243 026B  
                    l246 01A3                      _GP2 002A                      _GP4 002C  
                    _GP5 002D                      _GIE 005F                      _ISR 001A  
                    u660 00F4                      u661 00F3                      u670 00FF  
                    u671 00FE                      u680 0108                      u681 0107  
                    u690 0113                      u691 0112                      fsr0 0004  
      ??_TwoShortOneLong 0000                     ?_ISR 0020        ??_TwoShortTwoLong 0000  
                   l1300 0115                     l1400 0192                     l1410 019A  
                   l1402 0194                     l1420 019F                     l1412 019B  
                   l1404 0195                     l1422 01A1                     l1414 019C  
                   l1406 0196                     l1360 026C                     l1424 01A2  
                   l1416 019D                     l1408 0197                     l1362 026F  
                   l1370 0268                     l1290 00F6                     l1418 019E  
                   l1514 0274                     l1364 0271                     l1372 0269  
                   l1292 00FF                     l1380 0180                     l1366 0272  
                   l1294 0108                     l1286 00EA                     l1390 018A  
                   l1382 0182                     l1374 017A                     l1368 0261  
                   l1296 010A                     l1288 00F4                     l1392 018C  
                   l1384 0184                     l1376 017D                     l1298 0113  
                   l1394 018E                     l1386 0186                     l1378 017F  
                   l1396 018F                     l1388 0188                     l1398 0191  
                   _ADIF 0066                     _ADFM 00FF                     _ADON 00F8  
                   _CHS0 00FA                     _CHS1 00FB                     _GPIO 0005  
                   _PEIE 005E                     i1l82 00BC                     i1l91 0250  
                   i1l94 023F                     i1l88 00E0                     _VCFG 00FE  
                   _TMR0 0001                     _cnt0 002E                     _cnt1 002B  
                   _main 0274                     btemp 005E                     start 000D  
       ??_DataProcessing 0021          __end_of_Init_uC 01A4                    ??_ISR 0023  
        __end_of_TimeOut 0261          __end_of_MuxTemp 0240                    ?_main 0020  
                  _CMCON 0019                    _ANSEL 009F                    _T1CON 0010  
                  i1l104 01EE                    i1l132 0179                    i1l140 0149  
                  i1l152 020D                    i1l160 01CA                    i1l145 0260  
                  i1l167 022C                    _TMR1H 000F                    _TMR1L 000E  
                  u50_20 012F                    u50_21 012E                    u51_20 0138  
                  u51_21 0137                    u44_20 0154                    u52_20 0143  
                  u60_20 01C1                    u44_21 0153                    u52_21 0142  
                  u60_21 01C0                    u45_20 015F                    u53_20 01F5  
                  u61_20 01C9                    u45_21 015E                    u53_21 01F4  
                  u61_21 01C8                    u46_20 0168                    u62_20 0214  
                  u54_20 01FC                    u70_20 001E                    u46_21 0167  
                  u62_21 0213                    u54_21 01FB                    u70_21 001D  
                  u47_20 0173                    u63_20 021B                    u55_20 0204  
                  u71_20 0029                    u47_21 0172                    u63_21 021A  
                  u55_21 0203                    u71_21 0028                    u48_20 025B  
                  u64_20 0223                    u56_20 020C                    u80_20 008D  
                  u72_20 0038                    u48_21 025A                    u64_21 0222  
                  u56_21 020B                    u80_21 008C                    u72_21 0037  
                  u65_20 022B                    u49_20 0124                    u57_20 01AA  
                  u81_20 009D                    u73_20 0048                    u65_21 022A  
                  u49_21 0123                    u57_21 01A9                    u81_21 009C  
                  u73_21 0047                    u58_20 01B1                    u82_20 00A6  
                  u74_20 0051                    u58_21 01B0                    u82_21 00A5  
                  u74_21 0050                    u59_20 01B9                    u83_20 00B1  
                  u75_20 0056                    _VRCON 0099                    u59_21 01B8  
                  u83_21 00B0                    u75_21 0055                    u84_20 00BA  
                  u76_20 0062                    u84_21 00B9                    u76_21 0061  
                  u85_20 00C7                    u77_20 0071                    u85_21 00C6  
                  u77_21 0070                    u86_20 00CE                    u78_20 007B  
                  u86_21 00CD                    u78_21 007A                    u79_20 0082  
                  u79_21 0081                    u87_27 024B                    u88_27 023A  
                  pclath 000A                    status 0003                    wtemp0 005E  
        __initialization 000E               _InitTimer0 026C               _InitTimer1 0261  
           __end_of_main 0279                   ??_main 0000                   _ADCON0 001F  
                 _ADRESH 001E                   _ADRESL 009E                   i1l1200 0156  
                 i1l1210 0175                   i1l1202 015F                   i1l1204 0168  
                 i1l1212 0251                   i1l1220 0124                   i1l1206 016A  
                 i1l1214 025B                   i1l1230 0143                   i1l1222 0126  
                 i1l1302 01CB                   i1l1208 0173                   i1l1216 025D  
                 i1l1232 0145                   i1l1224 012F                   i1l1240 01FC  
                 i1l1312 01D5                   i1l1304 01CC                   i1l1226 0138  
                 i1l1218 011A                   i1l1242 01FD                   i1l1234 01EF  
                 i1l1250 01A4                   i1l1306 01CD                   i1l1330 0231  
                 i1l1228 013A                   i1l1244 0204                   i1l1236 01F5  
                 i1l1260 01B9                   i1l1252 01AA                   i1l1308 01D3  
                 i1l1340 023D                   i1l1332 0232                   i1l1324 022D  
                 i1l1500 00C8                   i1l1270 020E                   i1l1246 0205  
                 i1l1238 01F6                   i1l1262 01BA                   i1l1254 01AB  
                 i1l1318 01D7                   i1l1334 0233                   i1l1326 022F  
                 i1l1350 0245                   i1l1342 0240                   i1l1502 00CE  
                 i1l1430 0020                   i1l1280 0223                   i1l1272 0214  
                 i1l1248 020C                   i1l1264 01C1                   i1l1256 01B1  
                 i1l1336 0237                   i1l1328 0230                   i1l1352 0246  
                 i1l1344 0242                   i1l1440 0034                   i1l1432 0024  
                 i1l1282 0224                   i1l1274 0215                   i1l1266 01C2  
                 i1l1258 01B2                   i1l1338 0238                   i1l1354 0248  
                 i1l1346 0243                   i1l1450 0056                   i1l1506 00D0  
                 i1l1442 0038                   i1l1434 0025                   i1l1426 001A  
                 i1l1196 014A                   i1l1284 022B                   i1l1276 021B  
                 i1l1268 01C9                   i1l1356 0249                   i1l1348 0244  
                 i1l1460 0071                   i1l1452 0059                   i1l1444 003F  
                 i1l1436 0029                   i1l1428 001E                   i1l1198 0154  
                 i1l1278 021C                   i1l1358 024E                   i1l1470 0082  
                 i1l1462 0072                   i1l1454 0062                   i1l1446 0048  
                 i1l1438 0033                   i1l1480 009D                   i1l1472 0084  
                 i1l1456 0063                   i1l1464 0076                   i1l1448 0051  
                 i1l1490 00BA                   i1l1482 00A6                   i1l1474 008D  
                 i1l1466 007B                   i1l1458 0068                   i1l1476 008F  
                 i1l1468 007C                   i1l1566 00D8                   i1l1494 00BE  
                 i1l1486 00A8                   i1l1478 0094                   i1l1568 01E0  
                 i1l1488 00B1                   i1l1496 00C2                   i1l1498 00C7  
                 _TMR0IE 005D                   _TMR0IF 005A                   _TMR1IE 0460  
                 _TMR1IF 0060                   _TRISIO 0085                ??_Init_uC 0000  
              ??_TimeOut 0000                ??_MuxTemp 0020               _ThreeShort 020E  
             _MuxVoltage 0240               _ShortSound 014A                   saved_w 005E  
           ?i1_LongSound 0020  __end_of__initialization 0018              ?_InitTimer0 0020  
            ?_InitTimer1 0020           __pcstackCOMMON 0000             __pidataBANK0 0279  
        _TwoShortOneLong 01EF          _TwoShortTwoLong 01A4        __end_of_LongSound 011A  
             __pbssBANK0 0029               __pmaintext 0274               __pintentry 0004  
            ?_ThreeShort 0020              ?_MuxVoltage 0020              ?_ShortSound 0020  
                _TRISIO0 0428                  _TRISIO1 0429                  _TRISIO2 042A  
                _TRISIO4 042C                  _TRISIO5 042D  __end_of_TwoShortOneLong 020E  
                _Init_uC 017A                  _TimeOut 0251                  _MuxTemp 022D  
__end_of_TwoShortTwoLong 01CB                  __ptext1 017A                  __ptext2 00EA  
                __ptext3 0261                  __ptext4 026C                  __ptext5 001A  
                __ptext6 0240                  __ptext7 022D                  __ptext8 01CB  
                __ptext9 01A4     end_of_initialization 0018          _soundModeSwitch 002D  
       ?_TwoShortOneLong 0020             ??_InitTimer0 0000             ??_InitTimer1 0000  
       ?_TwoShortTwoLong 0020      start_initialization 000E              __end_of_ISR 00EA  
     __end_of_InitTimer0 0274       __end_of_InitTimer1 026C                _LongSound 00EA  
           ??_ThreeShort 0000              __pdataBANK0 002F             ??_MuxVoltage 0020  
           ??_ShortSound 0020                ___latbits 0000            __pcstackBANK0 0020  
             ?_LongSound 0020       __end_of_ThreeShort 022D       __end_of_MuxVoltage 0251  
               ?_Init_uC 0020       __end_of_ShortSound 017A                 ?_TimeOut 0020  
               ?_MuxTemp 0020           _DataProcessing 01CB                _errorType 002F  
      interrupt_function 0004   __end_of_DataProcessing 01EF            ??i1_LongSound 0020  
            ??_LongSound 0028              _measureType 0030          ?_DataProcessing 0020  
               _adcValue 0029                 __ptext10 01EF                 __ptext11 011A  
               __ptext12 020E                 __ptext13 0251                 __ptext14 014A  
    __end_ofi1_LongSound 014A                 intlevel1 0000               _OPTION_REG 0081  
            i1_LongSound 011A  
